; ModuleID = '/mnt/scratch/djc448/HLSAlgorithm/VMRouter_prj2/solution2/.autopilot/db/a.o.3.bc'
target datalayout = "e-p:64:64:64-i1:8:8-i8:8:8-i16:16:16-i32:32:32-i64:64:64-f32:32:32-f64:64:64-v64:64:64-v128:128:128-a0:0:64-s0:64:64-f80:128:128-n8:16:32:64-S128"
target triple = "x86_64-unknown-linux-gnu"

@llvm_global_ctors_1 = appending global [1 x void ()*] [void ()* @_GLOBAL__I_a] ; [#uses=0 type=[1 x void ()*]*]
@llvm_global_ctors_0 = appending global [1 x i32] [i32 65535] ; [#uses=0 type=[1 x i32]*]
@VMRouter_str = internal unnamed_addr constant [9 x i8] c"VMRouter\00" ; [#uses=1 type=[9 x i8]*]

; [#uses=1]
declare i7 @llvm.part.select.i7(i7, i32, i32) nounwind readnone

; [#uses=1]
declare i14 @llvm.part.select.i14(i14, i32, i32) nounwind readnone

; [#uses=1]
declare i12 @llvm.part.select.i12(i12, i32, i32) nounwind readnone

; [#uses=44]
declare void @llvm.dbg.value(metadata, i64, metadata) nounwind readnone

; [#uses=1]
define weak void @_ssdm_op_SpecTopModule(...) {
entry:
  ret void
}

; [#uses=18]
define weak void @_ssdm_op_SpecBitsMap(...) {
entry:
  ret void
}

; [#uses=1]
define weak i4 @_ssdm_op_PartSelect.i4.i12.i32.i32(i12, i32, i32) nounwind readnone {
entry:
  %empty = call i12 @llvm.part.select.i12(i12 %0, i32 %1, i32 %2) ; [#uses=1 type=i12]
  %empty_8 = trunc i12 %empty to i4               ; [#uses=1 type=i4]
  ret i4 %empty_8
}

; [#uses=1]
define weak i2 @_ssdm_op_PartSelect.i2.i7.i32.i32(i7, i32, i32) nounwind readnone {
entry:
  %empty = call i7 @llvm.part.select.i7(i7 %0, i32 %1, i32 %2) ; [#uses=1 type=i7]
  %empty_9 = trunc i7 %empty to i2                ; [#uses=1 type=i2]
  ret i2 %empty_9
}

; [#uses=1]
define weak i2 @_ssdm_op_PartSelect.i2.i14.i32.i32(i14, i32, i32) nounwind readnone {
entry:
  %empty = call i14 @llvm.part.select.i14(i14 %0, i32 %1, i32 %2) ; [#uses=1 type=i14]
  %empty_10 = trunc i14 %empty to i2              ; [#uses=1 type=i2]
  ret i2 %empty_10
}

; [#uses=1]
define weak i1 @_ssdm_op_BitSelect.i1.i14.i32(i14, i32) nounwind readnone {
entry:
  %empty = trunc i32 %1 to i14                    ; [#uses=1 type=i14]
  %empty_11 = shl i14 1, %empty                   ; [#uses=1 type=i14]
  %empty_12 = and i14 %0, %empty_11               ; [#uses=1 type=i14]
  %empty_13 = icmp ne i14 %empty_12, 0            ; [#uses=1 type=i1]
  ret i1 %empty_13
}

; [#uses=1]
define weak i3 @_ssdm_op_BitConcatenate.i3.i1.i2(i1, i2) nounwind readnone {
entry:
  %empty = zext i1 %0 to i3                       ; [#uses=1 type=i3]
  %empty_14 = zext i2 %1 to i3                    ; [#uses=1 type=i3]
  %empty_15 = shl i3 %empty, 2                    ; [#uses=1 type=i3]
  %empty_16 = or i3 %empty_15, %empty_14          ; [#uses=1 type=i3]
  ret i3 %empty_16
}

; [#uses=1]
declare void @_GLOBAL__I_a() nounwind section ".text.startup"

; [#uses=0]
define void @VMRouter([1 x i12]* %stubsInLayer_z_V, [1 x i14]* %stubsInLayer_phi_V, [1 x i7]* %stubsInLayer_r_V, [1 x i3]* %stubsInLayer_pt_V, [1 x i12]* %allStubs_z_V, [1 x i14]* %allStubs_phi_V, [1 x i7]* %allStubs_r_V, [1 x i3]* %allStubs_pt_V, [1 x i4]* %vmStubsPH1Z1_z_V, [1 x i3]* %vmStubsPH1Z1_phi_V, [1 x i2]* %vmStubsPH1Z1_r_V, [1 x i3]* %vmStubsPH1Z1_pt_V, [1 x i6]* %vmStubsPH1Z1_index_V, [1 x i4]* %vmStubsPH1Z2_z_V, [1 x i3]* %vmStubsPH1Z2_phi_V, [1 x i2]* %vmStubsPH1Z2_r_V, [1 x i3]* %vmStubsPH1Z2_pt_V, [1 x i6]* %vmStubsPH1Z2_index_V) {
  call void (...)* @_ssdm_op_SpecBitsMap([1 x i12]* %stubsInLayer_z_V), !map !65
  call void (...)* @_ssdm_op_SpecBitsMap([1 x i14]* %stubsInLayer_phi_V), !map !69
  call void (...)* @_ssdm_op_SpecBitsMap([1 x i7]* %stubsInLayer_r_V), !map !73
  call void (...)* @_ssdm_op_SpecBitsMap([1 x i3]* %stubsInLayer_pt_V), !map !77
  call void (...)* @_ssdm_op_SpecBitsMap([1 x i12]* %allStubs_z_V), !map !81
  call void (...)* @_ssdm_op_SpecBitsMap([1 x i14]* %allStubs_phi_V), !map !85
  call void (...)* @_ssdm_op_SpecBitsMap([1 x i7]* %allStubs_r_V), !map !89
  call void (...)* @_ssdm_op_SpecBitsMap([1 x i3]* %allStubs_pt_V), !map !93
  call void (...)* @_ssdm_op_SpecBitsMap([1 x i4]* %vmStubsPH1Z1_z_V), !map !97
  call void (...)* @_ssdm_op_SpecBitsMap([1 x i3]* %vmStubsPH1Z1_phi_V), !map !101
  call void (...)* @_ssdm_op_SpecBitsMap([1 x i2]* %vmStubsPH1Z1_r_V), !map !105
  call void (...)* @_ssdm_op_SpecBitsMap([1 x i3]* %vmStubsPH1Z1_pt_V), !map !109
  call void (...)* @_ssdm_op_SpecBitsMap([1 x i6]* %vmStubsPH1Z1_index_V), !map !113
  call void (...)* @_ssdm_op_SpecBitsMap([1 x i4]* %vmStubsPH1Z2_z_V), !map !117
  call void (...)* @_ssdm_op_SpecBitsMap([1 x i3]* %vmStubsPH1Z2_phi_V), !map !121
  call void (...)* @_ssdm_op_SpecBitsMap([1 x i2]* %vmStubsPH1Z2_r_V), !map !125
  call void (...)* @_ssdm_op_SpecBitsMap([1 x i3]* %vmStubsPH1Z2_pt_V), !map !129
  call void (...)* @_ssdm_op_SpecBitsMap([1 x i6]* %vmStubsPH1Z2_index_V), !map !133
  call void (...)* @_ssdm_op_SpecTopModule([9 x i8]* @VMRouter_str) nounwind
  call void @llvm.dbg.value(metadata !{[1 x i12]* %stubsInLayer_z_V}, i64 0, metadata !137), !dbg !3193 ; [debug line = 11:34] [debug variable = stubsInLayer.z.V]
  call void @llvm.dbg.value(metadata !{[1 x i14]* %stubsInLayer_phi_V}, i64 0, metadata !3194), !dbg !3193 ; [debug line = 11:34] [debug variable = stubsInLayer.phi.V]
  call void @llvm.dbg.value(metadata !{[1 x i7]* %stubsInLayer_r_V}, i64 0, metadata !3204), !dbg !3193 ; [debug line = 11:34] [debug variable = stubsInLayer.r.V]
  call void @llvm.dbg.value(metadata !{[1 x i3]* %stubsInLayer_pt_V}, i64 0, metadata !3214), !dbg !3193 ; [debug line = 11:34] [debug variable = stubsInLayer.pt.V]
  call void @llvm.dbg.value(metadata !{[1 x i12]* %allStubs_z_V}, i64 0, metadata !3224), !dbg !3226 ; [debug line = 12:28] [debug variable = allStubs.z.V]
  call void @llvm.dbg.value(metadata !{[1 x i14]* %allStubs_phi_V}, i64 0, metadata !3227), !dbg !3226 ; [debug line = 12:28] [debug variable = allStubs.phi.V]
  call void @llvm.dbg.value(metadata !{[1 x i7]* %allStubs_r_V}, i64 0, metadata !3228), !dbg !3226 ; [debug line = 12:28] [debug variable = allStubs.r.V]
  call void @llvm.dbg.value(metadata !{[1 x i3]* %allStubs_pt_V}, i64 0, metadata !3229), !dbg !3226 ; [debug line = 12:28] [debug variable = allStubs.pt.V]
  call void @llvm.dbg.value(metadata !{[1 x i4]* %vmStubsPH1Z1_z_V}, i64 0, metadata !3230), !dbg !3241 ; [debug line = 13:26] [debug variable = vmStubsPH1Z1.z.V]
  call void @llvm.dbg.value(metadata !{[1 x i3]* %vmStubsPH1Z1_phi_V}, i64 0, metadata !3242), !dbg !3241 ; [debug line = 13:26] [debug variable = vmStubsPH1Z1.phi.V]
  call void @llvm.dbg.value(metadata !{[1 x i2]* %vmStubsPH1Z1_r_V}, i64 0, metadata !3245), !dbg !3241 ; [debug line = 13:26] [debug variable = vmStubsPH1Z1.r.V]
  call void @llvm.dbg.value(metadata !{[1 x i3]* %vmStubsPH1Z1_pt_V}, i64 0, metadata !3255), !dbg !3241 ; [debug line = 13:26] [debug variable = vmStubsPH1Z1.pt.V]
  call void @llvm.dbg.value(metadata !{[1 x i6]* %vmStubsPH1Z1_index_V}, i64 0, metadata !3256), !dbg !3241 ; [debug line = 13:26] [debug variable = vmStubsPH1Z1.index.V]
  call void @llvm.dbg.value(metadata !{[1 x i4]* %vmStubsPH1Z2_z_V}, i64 0, metadata !3266), !dbg !3268 ; [debug line = 14:26] [debug variable = vmStubsPH1Z2.z.V]
  call void @llvm.dbg.value(metadata !{[1 x i3]* %vmStubsPH1Z2_phi_V}, i64 0, metadata !3269), !dbg !3268 ; [debug line = 14:26] [debug variable = vmStubsPH1Z2.phi.V]
  call void @llvm.dbg.value(metadata !{[1 x i2]* %vmStubsPH1Z2_r_V}, i64 0, metadata !3270), !dbg !3268 ; [debug line = 14:26] [debug variable = vmStubsPH1Z2.r.V]
  call void @llvm.dbg.value(metadata !{[1 x i3]* %vmStubsPH1Z2_pt_V}, i64 0, metadata !3271), !dbg !3268 ; [debug line = 14:26] [debug variable = vmStubsPH1Z2.pt.V]
  call void @llvm.dbg.value(metadata !{[1 x i6]* %vmStubsPH1Z2_index_V}, i64 0, metadata !3272), !dbg !3268 ; [debug line = 14:26] [debug variable = vmStubsPH1Z2.index.V]
  %stubsInLayer_z_V_addr = getelementptr [1 x i12]* %stubsInLayer_z_V, i64 0, i64 0, !dbg !3273 ; [#uses=1 type=i12*] [debug line = 35:9]
  %stubsInLayer_phi_V_addr = getelementptr [1 x i14]* %stubsInLayer_phi_V, i64 0, i64 0, !dbg !3273 ; [#uses=1 type=i14*] [debug line = 35:9]
  %stubsInLayer_r_V_addr = getelementptr [1 x i7]* %stubsInLayer_r_V, i64 0, i64 0, !dbg !3273 ; [#uses=1 type=i7*] [debug line = 35:9]
  %stubsInLayer_pt_V_addr = getelementptr [1 x i3]* %stubsInLayer_pt_V, i64 0, i64 0, !dbg !3273 ; [#uses=1 type=i3*] [debug line = 35:9]
  %stubsInLayer_z_V_load = load i12* %stubsInLayer_z_V_addr, align 2, !dbg !3273 ; [#uses=2 type=i12] [debug line = 35:9]
  call void @llvm.dbg.value(metadata !{i12 %stubsInLayer_z_V_load}, i64 0, metadata !3277), !dbg !3281 ; [debug line = 16:18@35:9] [debug variable = HLSFullStubLayerPS.z.V]
  %stubsInLayer_phi_V_load = load i14* %stubsInLayer_phi_V_addr, align 2, !dbg !3282 ; [#uses=3 type=i14] [debug line = 36:11]
  call void @llvm.dbg.value(metadata !{i14 %stubsInLayer_phi_V_load}, i64 0, metadata !3283), !dbg !3287 ; [debug line = 20:20@36:11] [debug variable = HLSFullStubLayerPS.phi.V]
  %stubsInLayer_r_V_load = load i7* %stubsInLayer_r_V_addr, align 1, !dbg !3288 ; [#uses=2 type=i7] [debug line = 37:9]
  call void @llvm.dbg.value(metadata !{i7 %stubsInLayer_r_V_load}, i64 0, metadata !3289), !dbg !3293 ; [debug line = 24:18@37:9] [debug variable = HLSFullStubLayerPS.r.V]
  %stubsInLayer_pt_V_load = load i3* %stubsInLayer_pt_V_addr, align 1, !dbg !3294 ; [#uses=3 type=i3] [debug line = 38:10]
  call void @llvm.dbg.value(metadata !{i3 %stubsInLayer_pt_V_load}, i64 0, metadata !3295), !dbg !3299 ; [debug line = 28:19@38:10] [debug variable = HLSFullStubLayerPS.pt.V]
  %allStubs_z_V_addr = getelementptr [1 x i12]* %allStubs_z_V, i64 0, i64 0, !dbg !3300 ; [#uses=1 type=i12*] [debug line = 41:2]
  %allStubs_phi_V_addr = getelementptr [1 x i14]* %allStubs_phi_V, i64 0, i64 0, !dbg !3300 ; [#uses=1 type=i14*] [debug line = 41:2]
  %allStubs_r_V_addr = getelementptr [1 x i7]* %allStubs_r_V, i64 0, i64 0, !dbg !3300 ; [#uses=1 type=i7*] [debug line = 41:2]
  %allStubs_pt_V_addr = getelementptr [1 x i3]* %allStubs_pt_V, i64 0, i64 0, !dbg !3300 ; [#uses=1 type=i3*] [debug line = 41:2]
  call void @llvm.dbg.value(metadata !{i12 %stubsInLayer_z_V_load}, i64 0, metadata !3301), !dbg !3308 ; [debug line = 276:87@11:2@41:2] [debug variable = op2.V]
  call void @llvm.dbg.value(metadata !{i14 %stubsInLayer_phi_V_load}, i64 0, metadata !3309), !dbg !3314 ; [debug line = 276:87@12:2@41:2] [debug variable = op2.V]
  call void @llvm.dbg.value(metadata !{i7 %stubsInLayer_r_V_load}, i64 0, metadata !3315), !dbg !3320 ; [debug line = 276:87@13:2@41:2] [debug variable = op2.V]
  call void @llvm.dbg.value(metadata !{i3 %stubsInLayer_pt_V_load}, i64 0, metadata !3321), !dbg !3326 ; [debug line = 276:87@14:2@41:2] [debug variable = op2.V]
  call void @llvm.dbg.value(metadata !{i12 %stubsInLayer_z_V_load}, i64 0, metadata !3327), !dbg !3329 ; [debug line = 9:8@41:2] [debug variable = HLSFullStubLayerPS.z.V]
  call void @llvm.dbg.value(metadata !{i14 %stubsInLayer_phi_V_load}, i64 0, metadata !3330), !dbg !3329 ; [debug line = 9:8@41:2] [debug variable = HLSFullStubLayerPS.phi.V]
  call void @llvm.dbg.value(metadata !{i7 %stubsInLayer_r_V_load}, i64 0, metadata !3331), !dbg !3329 ; [debug line = 9:8@41:2] [debug variable = HLSFullStubLayerPS.r.V]
  call void @llvm.dbg.value(metadata !{i3 %stubsInLayer_pt_V_load}, i64 0, metadata !3332), !dbg !3329 ; [debug line = 9:8@41:2] [debug variable = HLSFullStubLayerPS.pt.V]
  store i12 %stubsInLayer_z_V_load, i12* %allStubs_z_V_addr, align 2, !dbg !3300 ; [debug line = 41:2]
  store i14 %stubsInLayer_phi_V_load, i14* %allStubs_phi_V_addr, align 2, !dbg !3300 ; [debug line = 41:2]
  store i7 %stubsInLayer_r_V_load, i7* %allStubs_r_V_addr, align 1, !dbg !3300 ; [debug line = 41:2]
  store i3 %stubsInLayer_pt_V_load, i3* %allStubs_pt_V_addr, align 1, !dbg !3300 ; [debug line = 41:2]
  %op2_V_read_assign_s = call i4 @_ssdm_op_PartSelect.i4.i12.i32.i32(i12 %stubsInLayer_z_V_load, i32 5, i32 8), !dbg !3333 ; [#uses=2 type=i4] [debug line = 1765:117@47:17]
  %tmp_1 = call i1 @_ssdm_op_BitSelect.i1.i14.i32(i14 %stubsInLayer_phi_V_load, i32 11), !dbg !3338 ; [#uses=1 type=i1] [debug line = 1770:171@50:20]
  %v_assign_6 = xor i1 %tmp_1, true, !dbg !3342   ; [#uses=1 type=i1] [debug line = 50:20]
  %tmp = call i2 @_ssdm_op_PartSelect.i2.i14.i32.i32(i14 %stubsInLayer_phi_V_load, i32 9, i32 10), !dbg !3343 ; [#uses=1 type=i2] [debug line = 1765:117@50:20]
  %op2_V_read_assign = call i3 @_ssdm_op_BitConcatenate.i3.i1.i2(i1 %v_assign_6, i2 %tmp), !dbg !3343 ; [#uses=2 type=i3] [debug line = 1765:117@50:20]
  %op2_V_read_assign_1 = call i2 @_ssdm_op_PartSelect.i2.i7.i32.i32(i7 %stubsInLayer_r_V_load, i32 5, i32 6), !dbg !3347 ; [#uses=2 type=i2] [debug line = 1765:117@52:17]
  %cond = icmp eq i4 %op2_V_read_assign_s, 0, !dbg !3352 ; [#uses=1 type=i1] [debug line = 56:9]
  br i1 %cond, label %1, label %2, !dbg !3352     ; [debug line = 56:9]

; <label>:1                                       ; preds = %0
  %vmStubsPH1Z1_z_V_addr = getelementptr [1 x i4]* %vmStubsPH1Z1_z_V, i64 0, i64 0, !dbg !3353 ; [#uses=1 type=i4*] [debug line = 59:3]
  %vmStubsPH1Z1_phi_V_addr = getelementptr [1 x i3]* %vmStubsPH1Z1_phi_V, i64 0, i64 0, !dbg !3353 ; [#uses=1 type=i3*] [debug line = 59:3]
  %vmStubsPH1Z1_r_V_addr = getelementptr [1 x i2]* %vmStubsPH1Z1_r_V, i64 0, i64 0, !dbg !3353 ; [#uses=1 type=i2*] [debug line = 59:3]
  %vmStubsPH1Z1_pt_V_addr = getelementptr [1 x i3]* %vmStubsPH1Z1_pt_V, i64 0, i64 0, !dbg !3353 ; [#uses=1 type=i3*] [debug line = 59:3]
  %vmStubsPH1Z1_index_V_addr = getelementptr [1 x i6]* %vmStubsPH1Z1_index_V, i64 0, i64 0, !dbg !3353 ; [#uses=1 type=i6*] [debug line = 59:3]
  call void @llvm.dbg.value(metadata !{i3 %op2_V_read_assign}, i64 0, metadata !3355), !dbg !3359 ; [debug line = 276:87@11:2@59:3] [debug variable = op2.V]
  call void @llvm.dbg.value(metadata !{i2 %op2_V_read_assign_1}, i64 0, metadata !3360), !dbg !3365 ; [debug line = 276:87@12:2@59:3] [debug variable = op2.V]
  call void @llvm.dbg.value(metadata !{i3 %stubsInLayer_pt_V_load}, i64 0, metadata !3366), !dbg !3368 ; [debug line = 276:87@13:2@59:3] [debug variable = op2.V]
  call void @llvm.dbg.value(metadata !{i3 %op2_V_read_assign}, i64 0, metadata !3369), !dbg !3372 ; [debug line = 8:8@59:3] [debug variable = HLSReducedStubLayer.phi.V]
  call void @llvm.dbg.value(metadata !{i2 %op2_V_read_assign_1}, i64 0, metadata !3373), !dbg !3372 ; [debug line = 8:8@59:3] [debug variable = HLSReducedStubLayer.r.V]
  call void @llvm.dbg.value(metadata !{i3 %stubsInLayer_pt_V_load}, i64 0, metadata !3375), !dbg !3372 ; [debug line = 8:8@59:3] [debug variable = HLSReducedStubLayer.pt.V]
  store i4 0, i4* %vmStubsPH1Z1_z_V_addr, align 1, !dbg !3353 ; [debug line = 59:3]
  store i3 %op2_V_read_assign, i3* %vmStubsPH1Z1_phi_V_addr, align 1, !dbg !3353 ; [debug line = 59:3]
  store i2 %op2_V_read_assign_1, i2* %vmStubsPH1Z1_r_V_addr, align 1, !dbg !3353 ; [debug line = 59:3]
  store i3 %stubsInLayer_pt_V_load, i3* %vmStubsPH1Z1_pt_V_addr, align 1, !dbg !3353 ; [debug line = 59:3]
  store i6 0, i6* %vmStubsPH1Z1_index_V_addr, align 1, !dbg !3353 ; [debug line = 59:3]
  br label %3, !dbg !3376                         ; [debug line = 60:6]

; <label>:2                                       ; preds = %0
  %vmStubsPH1Z2_z_V_addr = getelementptr [1 x i4]* %vmStubsPH1Z2_z_V, i64 0, i64 0, !dbg !3377 ; [#uses=1 type=i4*] [debug line = 62:3]
  %vmStubsPH1Z2_phi_V_addr = getelementptr [1 x i3]* %vmStubsPH1Z2_phi_V, i64 0, i64 0, !dbg !3377 ; [#uses=1 type=i3*] [debug line = 62:3]
  %vmStubsPH1Z2_r_V_addr = getelementptr [1 x i2]* %vmStubsPH1Z2_r_V, i64 0, i64 0, !dbg !3377 ; [#uses=1 type=i2*] [debug line = 62:3]
  %vmStubsPH1Z2_pt_V_addr = getelementptr [1 x i3]* %vmStubsPH1Z2_pt_V, i64 0, i64 0, !dbg !3377 ; [#uses=1 type=i3*] [debug line = 62:3]
  %vmStubsPH1Z2_index_V_addr = getelementptr [1 x i6]* %vmStubsPH1Z2_index_V, i64 0, i64 0, !dbg !3377 ; [#uses=1 type=i6*] [debug line = 62:3]
  call void @llvm.dbg.value(metadata !{i4 %op2_V_read_assign_s}, i64 0, metadata !3378), !dbg !3383 ; [debug line = 276:87@10:2@62:3] [debug variable = op2.V]
  call void @llvm.dbg.value(metadata !{i3 %op2_V_read_assign}, i64 0, metadata !3384), !dbg !3386 ; [debug line = 276:87@11:2@62:3] [debug variable = op2.V]
  call void @llvm.dbg.value(metadata !{i2 %op2_V_read_assign_1}, i64 0, metadata !3387), !dbg !3389 ; [debug line = 276:87@12:2@62:3] [debug variable = op2.V]
  call void @llvm.dbg.value(metadata !{i3 %stubsInLayer_pt_V_load}, i64 0, metadata !3390), !dbg !3392 ; [debug line = 276:87@13:2@62:3] [debug variable = op2.V]
  call void @llvm.dbg.value(metadata !{i4 %op2_V_read_assign_s}, i64 0, metadata !3393), !dbg !3395 ; [debug line = 8:8@62:3] [debug variable = HLSReducedStubLayer.z.V]
  call void @llvm.dbg.value(metadata !{i3 %op2_V_read_assign}, i64 0, metadata !3396), !dbg !3395 ; [debug line = 8:8@62:3] [debug variable = HLSReducedStubLayer.phi.V]
  call void @llvm.dbg.value(metadata !{i2 %op2_V_read_assign_1}, i64 0, metadata !3397), !dbg !3395 ; [debug line = 8:8@62:3] [debug variable = HLSReducedStubLayer.r.V]
  call void @llvm.dbg.value(metadata !{i3 %stubsInLayer_pt_V_load}, i64 0, metadata !3398), !dbg !3395 ; [debug line = 8:8@62:3] [debug variable = HLSReducedStubLayer.pt.V]
  store i4 %op2_V_read_assign_s, i4* %vmStubsPH1Z2_z_V_addr, align 1, !dbg !3377 ; [debug line = 62:3]
  store i3 %op2_V_read_assign, i3* %vmStubsPH1Z2_phi_V_addr, align 1, !dbg !3377 ; [debug line = 62:3]
  store i2 %op2_V_read_assign_1, i2* %vmStubsPH1Z2_r_V_addr, align 1, !dbg !3377 ; [debug line = 62:3]
  store i3 %stubsInLayer_pt_V_load, i3* %vmStubsPH1Z2_pt_V_addr, align 1, !dbg !3377 ; [debug line = 62:3]
  store i6 0, i6* %vmStubsPH1Z2_index_V_addr, align 1, !dbg !3377 ; [debug line = 62:3]
  br label %3, !dbg !3399                         ; [debug line = 63:3]

; <label>:3                                       ; preds = %2, %1
  ret void, !dbg !3400                            ; [debug line = 67:1]
}

!opencl.kernels = !{!0, !7, !13, !13, !15, !21, !15, !24, !26, !24, !26, !24, !26, !32, !32, !15, !15, !15, !15, !15, !15, !15, !15, !15, !15, !15, !15, !15, !15, !15, !15, !15, !15, !15, !15, !15, !15, !15, !15, !15, !15, !15, !15, !34, !36, !38, !40, !42, !15, !15, !44, !50, !52, !54, !15, !15, !15, !15}
!hls.encrypted.func = !{}
!llvm.map.gv = !{!58}

!0 = metadata !{null, metadata !1, metadata !2, metadata !3, metadata !4, metadata !5, metadata !6}
!1 = metadata !{metadata !"kernel_arg_addr_space", i32 1, i32 1, i32 1, i32 1}
!2 = metadata !{metadata !"kernel_arg_access_qual", metadata !"none", metadata !"none", metadata !"none", metadata !"none"}
!3 = metadata !{metadata !"kernel_arg_type", metadata !"class HLSFullStubLayerPS*", metadata !"class HLSFullStubLayerPS*", metadata !"class HLSReducedStubLayer*", metadata !"class HLSReducedStubLayer*"}
!4 = metadata !{metadata !"kernel_arg_type_qual", metadata !"", metadata !"", metadata !"", metadata !""}
!5 = metadata !{metadata !"kernel_arg_name", metadata !"stubsInLayer", metadata !"allStubs", metadata !"vmStubsPH1Z1", metadata !"vmStubsPH1Z2"}
!6 = metadata !{metadata !"reqd_work_group_size", i32 1, i32 1, i32 1}
!7 = metadata !{null, metadata !8, metadata !9, metadata !10, metadata !11, metadata !12, metadata !6}
!8 = metadata !{metadata !"kernel_arg_addr_space", i32 0}
!9 = metadata !{metadata !"kernel_arg_access_qual", metadata !"none"}
!10 = metadata !{metadata !"kernel_arg_type", metadata !"int"}
!11 = metadata !{metadata !"kernel_arg_type_qual", metadata !""}
!12 = metadata !{metadata !"kernel_arg_name", metadata !""}
!13 = metadata !{null, metadata !8, metadata !9, metadata !10, metadata !11, metadata !14, metadata !6}
!14 = metadata !{metadata !"kernel_arg_name", metadata !"op"}
!15 = metadata !{null, metadata !16, metadata !17, metadata !18, metadata !19, metadata !20, metadata !6}
!16 = metadata !{metadata !"kernel_arg_addr_space"}
!17 = metadata !{metadata !"kernel_arg_access_qual"}
!18 = metadata !{metadata !"kernel_arg_type"}
!19 = metadata !{metadata !"kernel_arg_type_qual"}
!20 = metadata !{metadata !"kernel_arg_name"}
!21 = metadata !{null, metadata !8, metadata !9, metadata !22, metadata !11, metadata !23, metadata !6}
!22 = metadata !{metadata !"kernel_arg_type", metadata !"const ap_int_base<1, false> &"}
!23 = metadata !{metadata !"kernel_arg_name", metadata !"op2"}
!24 = metadata !{null, metadata !8, metadata !9, metadata !10, metadata !11, metadata !25, metadata !6}
!25 = metadata !{metadata !"kernel_arg_name", metadata !"i"}
!26 = metadata !{null, metadata !27, metadata !28, metadata !29, metadata !30, metadata !31, metadata !6}
!27 = metadata !{metadata !"kernel_arg_addr_space", i32 0, i32 0}
!28 = metadata !{metadata !"kernel_arg_access_qual", metadata !"none", metadata !"none"}
!29 = metadata !{metadata !"kernel_arg_type", metadata !"int", metadata !"_Bool"}
!30 = metadata !{metadata !"kernel_arg_type_qual", metadata !"", metadata !""}
!31 = metadata !{metadata !"kernel_arg_name", metadata !"i", metadata !"v"}
!32 = metadata !{null, metadata !8, metadata !9, metadata !10, metadata !11, metadata !33, metadata !6}
!33 = metadata !{metadata !"kernel_arg_name", metadata !"val"}
!34 = metadata !{null, metadata !8, metadata !9, metadata !35, metadata !11, metadata !23, metadata !6}
!35 = metadata !{metadata !"kernel_arg_type", metadata !"const ap_uint<6> &"}
!36 = metadata !{null, metadata !8, metadata !9, metadata !37, metadata !11, metadata !23, metadata !6}
!37 = metadata !{metadata !"kernel_arg_type", metadata !"const ap_uint<3> &"}
!38 = metadata !{null, metadata !8, metadata !9, metadata !39, metadata !11, metadata !23, metadata !6}
!39 = metadata !{metadata !"kernel_arg_type", metadata !"const ap_uint<7> &"}
!40 = metadata !{null, metadata !8, metadata !9, metadata !41, metadata !11, metadata !23, metadata !6}
!41 = metadata !{metadata !"kernel_arg_type", metadata !"const ap_uint<14> &"}
!42 = metadata !{null, metadata !8, metadata !9, metadata !43, metadata !11, metadata !23, metadata !6}
!43 = metadata !{metadata !"kernel_arg_type", metadata !"const ap_uint<12> &"}
!44 = metadata !{null, metadata !45, metadata !46, metadata !47, metadata !48, metadata !49, metadata !6}
!45 = metadata !{metadata !"kernel_arg_addr_space", i32 0, i32 0, i32 0, i32 0, i32 0}
!46 = metadata !{metadata !"kernel_arg_access_qual", metadata !"none", metadata !"none", metadata !"none", metadata !"none", metadata !"none"}
!47 = metadata !{metadata !"kernel_arg_type", metadata !"ReducedZ_Layer", metadata !"ReducedPhi_Layer", metadata !"ReducedR_Layer", metadata !"ReducedPt_Layer", metadata !"ReducedIndex"}
!48 = metadata !{metadata !"kernel_arg_type_qual", metadata !"", metadata !"", metadata !"", metadata !"", metadata !""}
!49 = metadata !{metadata !"kernel_arg_name", metadata !"newZ", metadata !"newPhi", metadata !"newR", metadata !"newPt", metadata !"newIndex"}
!50 = metadata !{null, metadata !8, metadata !9, metadata !51, metadata !11, metadata !23, metadata !6}
!51 = metadata !{metadata !"kernel_arg_type", metadata !"const ap_uint<2> &"}
!52 = metadata !{null, metadata !8, metadata !9, metadata !53, metadata !11, metadata !23, metadata !6}
!53 = metadata !{metadata !"kernel_arg_type", metadata !"const ap_uint<4> &"}
!54 = metadata !{null, metadata !55, metadata !2, metadata !56, metadata !4, metadata !57, metadata !6}
!55 = metadata !{metadata !"kernel_arg_addr_space", i32 0, i32 0, i32 0, i32 0}
!56 = metadata !{metadata !"kernel_arg_type", metadata !"FullZ_Layer_PS", metadata !"FullPhi_Layer_PS", metadata !"FullR_Layer_PS", metadata !"FullPt_Layer_PS"}
!57 = metadata !{metadata !"kernel_arg_name", metadata !"newZ", metadata !"newPhi", metadata !"newR", metadata !"newPt"}
!58 = metadata !{metadata !59, [1 x i32]* @llvm_global_ctors_0}
!59 = metadata !{metadata !60}
!60 = metadata !{i32 0, i32 31, metadata !61}
!61 = metadata !{metadata !62}
!62 = metadata !{metadata !"llvm.global_ctors.0", metadata !63, metadata !"", i32 0, i32 31}
!63 = metadata !{metadata !64}
!64 = metadata !{i32 0, i32 0, i32 1}
!65 = metadata !{metadata !66}
!66 = metadata !{i32 0, i32 11, metadata !67}
!67 = metadata !{metadata !68}
!68 = metadata !{metadata !"stubsInLayer.z.V", metadata !63, metadata !"uint12", i32 0, i32 11}
!69 = metadata !{metadata !70}
!70 = metadata !{i32 0, i32 13, metadata !71}
!71 = metadata !{metadata !72}
!72 = metadata !{metadata !"stubsInLayer.phi.V", metadata !63, metadata !"uint14", i32 0, i32 13}
!73 = metadata !{metadata !74}
!74 = metadata !{i32 0, i32 6, metadata !75}
!75 = metadata !{metadata !76}
!76 = metadata !{metadata !"stubsInLayer.r.V", metadata !63, metadata !"uint7", i32 0, i32 6}
!77 = metadata !{metadata !78}
!78 = metadata !{i32 0, i32 2, metadata !79}
!79 = metadata !{metadata !80}
!80 = metadata !{metadata !"stubsInLayer.pt.V", metadata !63, metadata !"uint3", i32 0, i32 2}
!81 = metadata !{metadata !82}
!82 = metadata !{i32 0, i32 11, metadata !83}
!83 = metadata !{metadata !84}
!84 = metadata !{metadata !"allStubs.z.V", metadata !63, metadata !"uint12", i32 0, i32 11}
!85 = metadata !{metadata !86}
!86 = metadata !{i32 0, i32 13, metadata !87}
!87 = metadata !{metadata !88}
!88 = metadata !{metadata !"allStubs.phi.V", metadata !63, metadata !"uint14", i32 0, i32 13}
!89 = metadata !{metadata !90}
!90 = metadata !{i32 0, i32 6, metadata !91}
!91 = metadata !{metadata !92}
!92 = metadata !{metadata !"allStubs.r.V", metadata !63, metadata !"uint7", i32 0, i32 6}
!93 = metadata !{metadata !94}
!94 = metadata !{i32 0, i32 2, metadata !95}
!95 = metadata !{metadata !96}
!96 = metadata !{metadata !"allStubs.pt.V", metadata !63, metadata !"uint3", i32 0, i32 2}
!97 = metadata !{metadata !98}
!98 = metadata !{i32 0, i32 3, metadata !99}
!99 = metadata !{metadata !100}
!100 = metadata !{metadata !"vmStubsPH1Z1.z.V", metadata !63, metadata !"uint4", i32 0, i32 3}
!101 = metadata !{metadata !102}
!102 = metadata !{i32 0, i32 2, metadata !103}
!103 = metadata !{metadata !104}
!104 = metadata !{metadata !"vmStubsPH1Z1.phi.V", metadata !63, metadata !"uint3", i32 0, i32 2}
!105 = metadata !{metadata !106}
!106 = metadata !{i32 0, i32 1, metadata !107}
!107 = metadata !{metadata !108}
!108 = metadata !{metadata !"vmStubsPH1Z1.r.V", metadata !63, metadata !"uint2", i32 0, i32 1}
!109 = metadata !{metadata !110}
!110 = metadata !{i32 0, i32 2, metadata !111}
!111 = metadata !{metadata !112}
!112 = metadata !{metadata !"vmStubsPH1Z1.pt.V", metadata !63, metadata !"uint3", i32 0, i32 2}
!113 = metadata !{metadata !114}
!114 = metadata !{i32 0, i32 5, metadata !115}
!115 = metadata !{metadata !116}
!116 = metadata !{metadata !"vmStubsPH1Z1.index.V", metadata !63, metadata !"uint6", i32 0, i32 5}
!117 = metadata !{metadata !118}
!118 = metadata !{i32 0, i32 3, metadata !119}
!119 = metadata !{metadata !120}
!120 = metadata !{metadata !"vmStubsPH1Z2.z.V", metadata !63, metadata !"uint4", i32 0, i32 3}
!121 = metadata !{metadata !122}
!122 = metadata !{i32 0, i32 2, metadata !123}
!123 = metadata !{metadata !124}
!124 = metadata !{metadata !"vmStubsPH1Z2.phi.V", metadata !63, metadata !"uint3", i32 0, i32 2}
!125 = metadata !{metadata !126}
!126 = metadata !{i32 0, i32 1, metadata !127}
!127 = metadata !{metadata !128}
!128 = metadata !{metadata !"vmStubsPH1Z2.r.V", metadata !63, metadata !"uint2", i32 0, i32 1}
!129 = metadata !{metadata !130}
!130 = metadata !{i32 0, i32 2, metadata !131}
!131 = metadata !{metadata !132}
!132 = metadata !{metadata !"vmStubsPH1Z2.pt.V", metadata !63, metadata !"uint3", i32 0, i32 2}
!133 = metadata !{metadata !134}
!134 = metadata !{i32 0, i32 5, metadata !135}
!135 = metadata !{metadata !136}
!136 = metadata !{metadata !"vmStubsPH1Z2.index.V", metadata !63, metadata !"uint6", i32 0, i32 5}
!137 = metadata !{i32 790531, metadata !138, metadata !"stubsInLayer.z.V", null, i32 11, metadata !3182, i32 0, i32 0} ; [ DW_TAG_arg_variable_field ]
!138 = metadata !{i32 786689, metadata !139, metadata !"stubsInLayer", metadata !140, i32 16777227, metadata !143, i32 0, i32 0} ; [ DW_TAG_arg_variable ]
!139 = metadata !{i32 786478, i32 0, metadata !140, metadata !"VMRouter", metadata !"VMRouter", metadata !"_Z8VMRouterP18HLSFullStubLayerPSS0_P19HLSReducedStubLayerS2_", metadata !140, i32 11, metadata !141, i1 false, i1 true, i32 0, i32 0, null, i32 256, i1 false, null, null, null, metadata !166, i32 15} ; [ DW_TAG_subprogram ]
!140 = metadata !{i32 786473, metadata !"VMRouter.cpp", metadata !"/mnt/scratch/djc448/HLSAlgorithm", null} ; [ DW_TAG_file_type ]
!141 = metadata !{i32 786453, i32 0, metadata !"", i32 0, i32 0, i64 0, i64 0, i64 0, i32 0, null, metadata !142, i32 0, i32 0} ; [ DW_TAG_subroutine_type ]
!142 = metadata !{null, metadata !143, metadata !143, metadata !2090, metadata !2090}
!143 = metadata !{i32 786447, null, metadata !"", null, i32 0, i64 64, i64 64, i64 0, i32 0, metadata !144} ; [ DW_TAG_pointer_type ]
!144 = metadata !{i32 786434, null, metadata !"HLSFullStubLayerPS", metadata !145, i32 6, i64 48, i64 16, i32 0, i32 0, null, metadata !146, i32 0, null, null} ; [ DW_TAG_class_type ]
!145 = metadata !{i32 786473, metadata !"./HLSFullStubLayerPS.hh", metadata !"/mnt/scratch/djc448/HLSAlgorithm", null} ; [ DW_TAG_file_type ]
!146 = metadata !{metadata !147, metadata !524, metadata !863, metadata !1723, metadata !2062, metadata !2066, metadata !2069, metadata !2072, metadata !2075, metadata !2078, metadata !2081, metadata !2084, metadata !2087}
!147 = metadata !{i32 786445, metadata !144, metadata !"z", metadata !145, i32 49, i64 16, i64 16, i64 0, i32 1, metadata !148} ; [ DW_TAG_member ]
!148 = metadata !{i32 786454, null, metadata !"FullZ_Layer_PS", metadata !145, i32 9, i64 0, i64 0, i64 0, i32 0, metadata !149} ; [ DW_TAG_typedef ]
!149 = metadata !{i32 786434, null, metadata !"ap_uint<12>", metadata !150, i32 180, i64 16, i64 16, i32 0, i32 0, null, metadata !151, i32 0, null, metadata !523} ; [ DW_TAG_class_type ]
!150 = metadata !{i32 786473, metadata !"/nfs/opt/Xilinx/Vivado_HLS/2016.1/common/technology/autopilot/ap_int.h", metadata !"/mnt/scratch/djc448/HLSAlgorithm", null} ; [ DW_TAG_file_type ]
!151 = metadata !{metadata !152, metadata !443, metadata !447, metadata !453, metadata !459, metadata !462, metadata !465, metadata !468, metadata !471, metadata !474, metadata !477, metadata !480, metadata !483, metadata !486, metadata !489, metadata !492, metadata !495, metadata !498, metadata !501, metadata !504, metadata !507, metadata !511, metadata !514, metadata !518, metadata !521, metadata !522}
!152 = metadata !{i32 786460, metadata !149, null, metadata !150, i32 0, i64 0, i64 0, i64 0, i32 0, metadata !153} ; [ DW_TAG_inheritance ]
!153 = metadata !{i32 786434, null, metadata !"ap_int_base<12, false, true>", metadata !154, i32 1397, i64 16, i64 16, i32 0, i32 0, null, metadata !155, i32 0, null, metadata !440} ; [ DW_TAG_class_type ]
!154 = metadata !{i32 786473, metadata !"/nfs/opt/Xilinx/Vivado_HLS/2016.1/common/technology/autopilot/ap_int_syn.h", metadata !"/mnt/scratch/djc448/HLSAlgorithm", null} ; [ DW_TAG_file_type ]
!155 = metadata !{metadata !156, metadata !178, metadata !182, metadata !190, metadata !196, metadata !199, metadata !203, metadata !207, metadata !211, metadata !215, metadata !218, metadata !222, metadata !226, metadata !230, metadata !235, metadata !240, metadata !244, metadata !248, metadata !254, metadata !257, metadata !261, metadata !264, metadata !267, metadata !268, metadata !272, metadata !275, metadata !278, metadata !281, metadata !284, metadata !287, metadata !290, metadata !293, metadata !296, metadata !299, metadata !302, metadata !305, metadata !315, metadata !318, metadata !321, metadata !324, metadata !327, metadata !330, metadata !333, metadata !336, metadata !339, metadata !342, metadata !345, metadata !348, metadata !351, metadata !352, metadata !356, metadata !359, metadata !360, metadata !361, metadata !362, metadata !363, metadata !364, metadata !367, metadata !368, metadata !371, metadata !372, metadata !373, metadata !374, metadata !375, metadata !376, metadata !379, metadata !380, metadata !381, metadata !384, metadata !385, metadata !388, metadata !389, metadata !393, metadata !397, metadata !398, metadata !401, metadata !402, metadata !406, metadata !407, metadata !408, metadata !409, metadata !412, metadata !413, metadata !414, metadata !415, metadata !416, metadata !417, metadata !418, metadata !419, metadata !420, metadata !421, metadata !422, metadata !423, metadata !433, metadata !436, metadata !439}
!156 = metadata !{i32 786460, metadata !153, null, metadata !154, i32 0, i64 0, i64 0, i64 0, i32 0, metadata !157} ; [ DW_TAG_inheritance ]
!157 = metadata !{i32 786434, null, metadata !"ssdm_int<12 + 1024 * 0, false>", metadata !158, i32 14, i64 16, i64 16, i32 0, i32 0, null, metadata !159, i32 0, null, metadata !173} ; [ DW_TAG_class_type ]
!158 = metadata !{i32 786473, metadata !"/nfs/opt/Xilinx/Vivado_HLS/2016.1/common/technology/autopilot/etc/autopilot_dt.def", metadata !"/mnt/scratch/djc448/HLSAlgorithm", null} ; [ DW_TAG_file_type ]
!159 = metadata !{metadata !160, metadata !162, metadata !168}
!160 = metadata !{i32 786445, metadata !157, metadata !"V", metadata !158, i32 14, i64 12, i64 16, i64 0, i32 0, metadata !161} ; [ DW_TAG_member ]
!161 = metadata !{i32 786468, null, metadata !"uint12", null, i32 0, i64 12, i64 16, i64 0, i32 0, i32 7} ; [ DW_TAG_base_type ]
!162 = metadata !{i32 786478, i32 0, metadata !157, metadata !"ssdm_int", metadata !"ssdm_int", metadata !"", metadata !158, i32 14, metadata !163, i1 false, i1 false, i32 0, i32 0, null, i32 256, i1 false, null, null, i32 0, metadata !166, i32 14} ; [ DW_TAG_subprogram ]
!163 = metadata !{i32 786453, i32 0, metadata !"", i32 0, i32 0, i64 0, i64 0, i64 0, i32 0, null, metadata !164, i32 0, i32 0} ; [ DW_TAG_subroutine_type ]
!164 = metadata !{null, metadata !165}
!165 = metadata !{i32 786447, i32 0, metadata !"", i32 0, i32 0, i64 64, i64 64, i64 0, i32 64, metadata !157} ; [ DW_TAG_pointer_type ]
!166 = metadata !{metadata !167}
!167 = metadata !{i32 786468}                     ; [ DW_TAG_base_type ]
!168 = metadata !{i32 786478, i32 0, metadata !157, metadata !"ssdm_int", metadata !"ssdm_int", metadata !"", metadata !158, i32 14, metadata !169, i1 false, i1 false, i32 0, i32 0, null, i32 320, i1 false, null, null, i32 0, metadata !166, i32 14} ; [ DW_TAG_subprogram ]
!169 = metadata !{i32 786453, i32 0, metadata !"", i32 0, i32 0, i64 0, i64 0, i64 0, i32 0, null, metadata !170, i32 0, i32 0} ; [ DW_TAG_subroutine_type ]
!170 = metadata !{null, metadata !165, metadata !171}
!171 = metadata !{i32 786448, null, null, null, i32 0, i64 0, i64 0, i64 0, i32 0, metadata !172} ; [ DW_TAG_reference_type ]
!172 = metadata !{i32 786470, null, metadata !"", null, i32 0, i64 0, i64 0, i64 0, i32 0, metadata !157} ; [ DW_TAG_const_type ]
!173 = metadata !{metadata !174, metadata !176}
!174 = metadata !{i32 786480, null, metadata !"_AP_N", metadata !175, i64 12, null, i32 0, i32 0} ; [ DW_TAG_template_value_parameter ]
!175 = metadata !{i32 786468, null, metadata !"int", null, i32 0, i64 32, i64 32, i64 0, i32 0, i32 5} ; [ DW_TAG_base_type ]
!176 = metadata !{i32 786480, null, metadata !"_AP_S", metadata !177, i64 0, null, i32 0, i32 0} ; [ DW_TAG_template_value_parameter ]
!177 = metadata !{i32 786468, null, metadata !"bool", null, i32 0, i64 8, i64 8, i64 0, i32 0, i32 2} ; [ DW_TAG_base_type ]
!178 = metadata !{i32 786478, i32 0, metadata !153, metadata !"ap_int_base", metadata !"ap_int_base", metadata !"", metadata !154, i32 1438, metadata !179, i1 false, i1 false, i32 0, i32 0, null, i32 256, i1 false, null, null, i32 0, metadata !166, i32 1438} ; [ DW_TAG_subprogram ]
!179 = metadata !{i32 786453, i32 0, metadata !"", i32 0, i32 0, i64 0, i64 0, i64 0, i32 0, null, metadata !180, i32 0, i32 0} ; [ DW_TAG_subroutine_type ]
!180 = metadata !{null, metadata !181}
!181 = metadata !{i32 786447, i32 0, metadata !"", i32 0, i32 0, i64 64, i64 64, i64 0, i32 64, metadata !153} ; [ DW_TAG_pointer_type ]
!182 = metadata !{i32 786478, i32 0, metadata !153, metadata !"ap_int_base<12, false>", metadata !"ap_int_base<12, false>", metadata !"", metadata !154, i32 1450, metadata !183, i1 false, i1 false, i32 0, i32 0, null, i32 256, i1 false, null, metadata !187, i32 0, metadata !166, i32 1450} ; [ DW_TAG_subprogram ]
!183 = metadata !{i32 786453, i32 0, metadata !"", i32 0, i32 0, i64 0, i64 0, i64 0, i32 0, null, metadata !184, i32 0, i32 0} ; [ DW_TAG_subroutine_type ]
!184 = metadata !{null, metadata !181, metadata !185}
!185 = metadata !{i32 786448, null, null, null, i32 0, i64 0, i64 0, i64 0, i32 0, metadata !186} ; [ DW_TAG_reference_type ]
!186 = metadata !{i32 786470, null, metadata !"", null, i32 0, i64 0, i64 0, i64 0, i32 0, metadata !153} ; [ DW_TAG_const_type ]
!187 = metadata !{metadata !188, metadata !189}
!188 = metadata !{i32 786480, null, metadata !"_AP_W2", metadata !175, i64 12, null, i32 0, i32 0} ; [ DW_TAG_template_value_parameter ]
!189 = metadata !{i32 786480, null, metadata !"_AP_S2", metadata !177, i64 0, null, i32 0, i32 0} ; [ DW_TAG_template_value_parameter ]
!190 = metadata !{i32 786478, i32 0, metadata !153, metadata !"ap_int_base<12, false>", metadata !"ap_int_base<12, false>", metadata !"", metadata !154, i32 1453, metadata !191, i1 false, i1 false, i32 0, i32 0, null, i32 256, i1 false, null, metadata !187, i32 0, metadata !166, i32 1453} ; [ DW_TAG_subprogram ]
!191 = metadata !{i32 786453, i32 0, metadata !"", i32 0, i32 0, i64 0, i64 0, i64 0, i32 0, null, metadata !192, i32 0, i32 0} ; [ DW_TAG_subroutine_type ]
!192 = metadata !{null, metadata !181, metadata !193}
!193 = metadata !{i32 786448, null, null, null, i32 0, i64 0, i64 0, i64 0, i32 0, metadata !194} ; [ DW_TAG_reference_type ]
!194 = metadata !{i32 786470, null, metadata !"", null, i32 0, i64 0, i64 0, i64 0, i32 0, metadata !195} ; [ DW_TAG_const_type ]
!195 = metadata !{i32 786485, null, metadata !"", null, i32 0, i64 0, i64 0, i64 0, i32 0, metadata !153} ; [ DW_TAG_volatile_type ]
!196 = metadata !{i32 786478, i32 0, metadata !153, metadata !"ap_int_base", metadata !"ap_int_base", metadata !"", metadata !154, i32 1460, metadata !197, i1 false, i1 false, i32 0, i32 0, null, i32 384, i1 false, null, null, i32 0, metadata !166, i32 1460} ; [ DW_TAG_subprogram ]
!197 = metadata !{i32 786453, i32 0, metadata !"", i32 0, i32 0, i64 0, i64 0, i64 0, i32 0, null, metadata !198, i32 0, i32 0} ; [ DW_TAG_subroutine_type ]
!198 = metadata !{null, metadata !181, metadata !177}
!199 = metadata !{i32 786478, i32 0, metadata !153, metadata !"ap_int_base", metadata !"ap_int_base", metadata !"", metadata !154, i32 1461, metadata !200, i1 false, i1 false, i32 0, i32 0, null, i32 384, i1 false, null, null, i32 0, metadata !166, i32 1461} ; [ DW_TAG_subprogram ]
!200 = metadata !{i32 786453, i32 0, metadata !"", i32 0, i32 0, i64 0, i64 0, i64 0, i32 0, null, metadata !201, i32 0, i32 0} ; [ DW_TAG_subroutine_type ]
!201 = metadata !{null, metadata !181, metadata !202}
!202 = metadata !{i32 786468, null, metadata !"signed char", null, i32 0, i64 8, i64 8, i64 0, i32 0, i32 6} ; [ DW_TAG_base_type ]
!203 = metadata !{i32 786478, i32 0, metadata !153, metadata !"ap_int_base", metadata !"ap_int_base", metadata !"", metadata !154, i32 1462, metadata !204, i1 false, i1 false, i32 0, i32 0, null, i32 384, i1 false, null, null, i32 0, metadata !166, i32 1462} ; [ DW_TAG_subprogram ]
!204 = metadata !{i32 786453, i32 0, metadata !"", i32 0, i32 0, i64 0, i64 0, i64 0, i32 0, null, metadata !205, i32 0, i32 0} ; [ DW_TAG_subroutine_type ]
!205 = metadata !{null, metadata !181, metadata !206}
!206 = metadata !{i32 786468, null, metadata !"unsigned char", null, i32 0, i64 8, i64 8, i64 0, i32 0, i32 8} ; [ DW_TAG_base_type ]
!207 = metadata !{i32 786478, i32 0, metadata !153, metadata !"ap_int_base", metadata !"ap_int_base", metadata !"", metadata !154, i32 1463, metadata !208, i1 false, i1 false, i32 0, i32 0, null, i32 384, i1 false, null, null, i32 0, metadata !166, i32 1463} ; [ DW_TAG_subprogram ]
!208 = metadata !{i32 786453, i32 0, metadata !"", i32 0, i32 0, i64 0, i64 0, i64 0, i32 0, null, metadata !209, i32 0, i32 0} ; [ DW_TAG_subroutine_type ]
!209 = metadata !{null, metadata !181, metadata !210}
!210 = metadata !{i32 786468, null, metadata !"short", null, i32 0, i64 16, i64 16, i64 0, i32 0, i32 5} ; [ DW_TAG_base_type ]
!211 = metadata !{i32 786478, i32 0, metadata !153, metadata !"ap_int_base", metadata !"ap_int_base", metadata !"", metadata !154, i32 1464, metadata !212, i1 false, i1 false, i32 0, i32 0, null, i32 384, i1 false, null, null, i32 0, metadata !166, i32 1464} ; [ DW_TAG_subprogram ]
!212 = metadata !{i32 786453, i32 0, metadata !"", i32 0, i32 0, i64 0, i64 0, i64 0, i32 0, null, metadata !213, i32 0, i32 0} ; [ DW_TAG_subroutine_type ]
!213 = metadata !{null, metadata !181, metadata !214}
!214 = metadata !{i32 786468, null, metadata !"unsigned short", null, i32 0, i64 16, i64 16, i64 0, i32 0, i32 7} ; [ DW_TAG_base_type ]
!215 = metadata !{i32 786478, i32 0, metadata !153, metadata !"ap_int_base", metadata !"ap_int_base", metadata !"", metadata !154, i32 1465, metadata !216, i1 false, i1 false, i32 0, i32 0, null, i32 384, i1 false, null, null, i32 0, metadata !166, i32 1465} ; [ DW_TAG_subprogram ]
!216 = metadata !{i32 786453, i32 0, metadata !"", i32 0, i32 0, i64 0, i64 0, i64 0, i32 0, null, metadata !217, i32 0, i32 0} ; [ DW_TAG_subroutine_type ]
!217 = metadata !{null, metadata !181, metadata !175}
!218 = metadata !{i32 786478, i32 0, metadata !153, metadata !"ap_int_base", metadata !"ap_int_base", metadata !"", metadata !154, i32 1466, metadata !219, i1 false, i1 false, i32 0, i32 0, null, i32 384, i1 false, null, null, i32 0, metadata !166, i32 1466} ; [ DW_TAG_subprogram ]
!219 = metadata !{i32 786453, i32 0, metadata !"", i32 0, i32 0, i64 0, i64 0, i64 0, i32 0, null, metadata !220, i32 0, i32 0} ; [ DW_TAG_subroutine_type ]
!220 = metadata !{null, metadata !181, metadata !221}
!221 = metadata !{i32 786468, null, metadata !"unsigned int", null, i32 0, i64 32, i64 32, i64 0, i32 0, i32 7} ; [ DW_TAG_base_type ]
!222 = metadata !{i32 786478, i32 0, metadata !153, metadata !"ap_int_base", metadata !"ap_int_base", metadata !"", metadata !154, i32 1467, metadata !223, i1 false, i1 false, i32 0, i32 0, null, i32 384, i1 false, null, null, i32 0, metadata !166, i32 1467} ; [ DW_TAG_subprogram ]
!223 = metadata !{i32 786453, i32 0, metadata !"", i32 0, i32 0, i64 0, i64 0, i64 0, i32 0, null, metadata !224, i32 0, i32 0} ; [ DW_TAG_subroutine_type ]
!224 = metadata !{null, metadata !181, metadata !225}
!225 = metadata !{i32 786468, null, metadata !"long int", null, i32 0, i64 64, i64 64, i64 0, i32 0, i32 5} ; [ DW_TAG_base_type ]
!226 = metadata !{i32 786478, i32 0, metadata !153, metadata !"ap_int_base", metadata !"ap_int_base", metadata !"", metadata !154, i32 1468, metadata !227, i1 false, i1 false, i32 0, i32 0, null, i32 384, i1 false, null, null, i32 0, metadata !166, i32 1468} ; [ DW_TAG_subprogram ]
!227 = metadata !{i32 786453, i32 0, metadata !"", i32 0, i32 0, i64 0, i64 0, i64 0, i32 0, null, metadata !228, i32 0, i32 0} ; [ DW_TAG_subroutine_type ]
!228 = metadata !{null, metadata !181, metadata !229}
!229 = metadata !{i32 786468, null, metadata !"long unsigned int", null, i32 0, i64 64, i64 64, i64 0, i32 0, i32 7} ; [ DW_TAG_base_type ]
!230 = metadata !{i32 786478, i32 0, metadata !153, metadata !"ap_int_base", metadata !"ap_int_base", metadata !"", metadata !154, i32 1469, metadata !231, i1 false, i1 false, i32 0, i32 0, null, i32 384, i1 false, null, null, i32 0, metadata !166, i32 1469} ; [ DW_TAG_subprogram ]
!231 = metadata !{i32 786453, i32 0, metadata !"", i32 0, i32 0, i64 0, i64 0, i64 0, i32 0, null, metadata !232, i32 0, i32 0} ; [ DW_TAG_subroutine_type ]
!232 = metadata !{null, metadata !181, metadata !233}
!233 = metadata !{i32 786454, null, metadata !"ap_slong", metadata !154, i32 111, i64 0, i64 0, i64 0, i32 0, metadata !234} ; [ DW_TAG_typedef ]
!234 = metadata !{i32 786468, null, metadata !"long long int", null, i32 0, i64 64, i64 64, i64 0, i32 0, i32 5} ; [ DW_TAG_base_type ]
!235 = metadata !{i32 786478, i32 0, metadata !153, metadata !"ap_int_base", metadata !"ap_int_base", metadata !"", metadata !154, i32 1470, metadata !236, i1 false, i1 false, i32 0, i32 0, null, i32 384, i1 false, null, null, i32 0, metadata !166, i32 1470} ; [ DW_TAG_subprogram ]
!236 = metadata !{i32 786453, i32 0, metadata !"", i32 0, i32 0, i64 0, i64 0, i64 0, i32 0, null, metadata !237, i32 0, i32 0} ; [ DW_TAG_subroutine_type ]
!237 = metadata !{null, metadata !181, metadata !238}
!238 = metadata !{i32 786454, null, metadata !"ap_ulong", metadata !154, i32 110, i64 0, i64 0, i64 0, i32 0, metadata !239} ; [ DW_TAG_typedef ]
!239 = metadata !{i32 786468, null, metadata !"long long unsigned int", null, i32 0, i64 64, i64 64, i64 0, i32 0, i32 7} ; [ DW_TAG_base_type ]
!240 = metadata !{i32 786478, i32 0, metadata !153, metadata !"ap_int_base", metadata !"ap_int_base", metadata !"", metadata !154, i32 1471, metadata !241, i1 false, i1 false, i32 0, i32 0, null, i32 384, i1 false, null, null, i32 0, metadata !166, i32 1471} ; [ DW_TAG_subprogram ]
!241 = metadata !{i32 786453, i32 0, metadata !"", i32 0, i32 0, i64 0, i64 0, i64 0, i32 0, null, metadata !242, i32 0, i32 0} ; [ DW_TAG_subroutine_type ]
!242 = metadata !{null, metadata !181, metadata !243}
!243 = metadata !{i32 786468, null, metadata !"float", null, i32 0, i64 32, i64 32, i64 0, i32 0, i32 4} ; [ DW_TAG_base_type ]
!244 = metadata !{i32 786478, i32 0, metadata !153, metadata !"ap_int_base", metadata !"ap_int_base", metadata !"", metadata !154, i32 1472, metadata !245, i1 false, i1 false, i32 0, i32 0, null, i32 384, i1 false, null, null, i32 0, metadata !166, i32 1472} ; [ DW_TAG_subprogram ]
!245 = metadata !{i32 786453, i32 0, metadata !"", i32 0, i32 0, i64 0, i64 0, i64 0, i32 0, null, metadata !246, i32 0, i32 0} ; [ DW_TAG_subroutine_type ]
!246 = metadata !{null, metadata !181, metadata !247}
!247 = metadata !{i32 786468, null, metadata !"double", null, i32 0, i64 64, i64 64, i64 0, i32 0, i32 4} ; [ DW_TAG_base_type ]
!248 = metadata !{i32 786478, i32 0, metadata !153, metadata !"ap_int_base", metadata !"ap_int_base", metadata !"", metadata !154, i32 1499, metadata !249, i1 false, i1 false, i32 0, i32 0, null, i32 256, i1 false, null, null, i32 0, metadata !166, i32 1499} ; [ DW_TAG_subprogram ]
!249 = metadata !{i32 786453, i32 0, metadata !"", i32 0, i32 0, i64 0, i64 0, i64 0, i32 0, null, metadata !250, i32 0, i32 0} ; [ DW_TAG_subroutine_type ]
!250 = metadata !{null, metadata !181, metadata !251}
!251 = metadata !{i32 786447, null, metadata !"", null, i32 0, i64 64, i64 64, i64 0, i32 0, metadata !252} ; [ DW_TAG_pointer_type ]
!252 = metadata !{i32 786470, null, metadata !"", null, i32 0, i64 0, i64 0, i64 0, i32 0, metadata !253} ; [ DW_TAG_const_type ]
!253 = metadata !{i32 786468, null, metadata !"char", null, i32 0, i64 8, i64 8, i64 0, i32 0, i32 6} ; [ DW_TAG_base_type ]
!254 = metadata !{i32 786478, i32 0, metadata !153, metadata !"ap_int_base", metadata !"ap_int_base", metadata !"", metadata !154, i32 1506, metadata !255, i1 false, i1 false, i32 0, i32 0, null, i32 256, i1 false, null, null, i32 0, metadata !166, i32 1506} ; [ DW_TAG_subprogram ]
!255 = metadata !{i32 786453, i32 0, metadata !"", i32 0, i32 0, i64 0, i64 0, i64 0, i32 0, null, metadata !256, i32 0, i32 0} ; [ DW_TAG_subroutine_type ]
!256 = metadata !{null, metadata !181, metadata !251, metadata !202}
!257 = metadata !{i32 786478, i32 0, metadata !153, metadata !"read", metadata !"read", metadata !"_ZNV11ap_int_baseILi12ELb0ELb1EE4readEv", metadata !154, i32 1527, metadata !258, i1 false, i1 false, i32 0, i32 0, null, i32 256, i1 false, null, null, i32 0, metadata !166, i32 1527} ; [ DW_TAG_subprogram ]
!258 = metadata !{i32 786453, i32 0, metadata !"", i32 0, i32 0, i64 0, i64 0, i64 0, i32 0, null, metadata !259, i32 0, i32 0} ; [ DW_TAG_subroutine_type ]
!259 = metadata !{metadata !153, metadata !260}
!260 = metadata !{i32 786447, i32 0, metadata !"", i32 0, i32 0, i64 64, i64 64, i64 0, i32 64, metadata !195} ; [ DW_TAG_pointer_type ]
!261 = metadata !{i32 786478, i32 0, metadata !153, metadata !"write", metadata !"write", metadata !"_ZNV11ap_int_baseILi12ELb0ELb1EE5writeERKS0_", metadata !154, i32 1533, metadata !262, i1 false, i1 false, i32 0, i32 0, null, i32 256, i1 false, null, null, i32 0, metadata !166, i32 1533} ; [ DW_TAG_subprogram ]
!262 = metadata !{i32 786453, i32 0, metadata !"", i32 0, i32 0, i64 0, i64 0, i64 0, i32 0, null, metadata !263, i32 0, i32 0} ; [ DW_TAG_subroutine_type ]
!263 = metadata !{null, metadata !260, metadata !185}
!264 = metadata !{i32 786478, i32 0, metadata !153, metadata !"operator=", metadata !"operator=", metadata !"_ZNV11ap_int_baseILi12ELb0ELb1EEaSERVKS0_", metadata !154, i32 1545, metadata !265, i1 false, i1 false, i32 0, i32 0, null, i32 256, i1 false, null, null, i32 0, metadata !166, i32 1545} ; [ DW_TAG_subprogram ]
!265 = metadata !{i32 786453, i32 0, metadata !"", i32 0, i32 0, i64 0, i64 0, i64 0, i32 0, null, metadata !266, i32 0, i32 0} ; [ DW_TAG_subroutine_type ]
!266 = metadata !{null, metadata !260, metadata !193}
!267 = metadata !{i32 786478, i32 0, metadata !153, metadata !"operator=", metadata !"operator=", metadata !"_ZNV11ap_int_baseILi12ELb0ELb1EEaSERKS0_", metadata !154, i32 1554, metadata !262, i1 false, i1 false, i32 0, i32 0, null, i32 256, i1 false, null, null, i32 0, metadata !166, i32 1554} ; [ DW_TAG_subprogram ]
!268 = metadata !{i32 786478, i32 0, metadata !153, metadata !"operator=", metadata !"operator=", metadata !"_ZN11ap_int_baseILi12ELb0ELb1EEaSERVKS0_", metadata !154, i32 1577, metadata !269, i1 false, i1 false, i32 0, i32 0, null, i32 256, i1 false, null, null, i32 0, metadata !166, i32 1577} ; [ DW_TAG_subprogram ]
!269 = metadata !{i32 786453, i32 0, metadata !"", i32 0, i32 0, i64 0, i64 0, i64 0, i32 0, null, metadata !270, i32 0, i32 0} ; [ DW_TAG_subroutine_type ]
!270 = metadata !{metadata !271, metadata !181, metadata !193}
!271 = metadata !{i32 786448, null, null, null, i32 0, i64 0, i64 0, i64 0, i32 0, metadata !153} ; [ DW_TAG_reference_type ]
!272 = metadata !{i32 786478, i32 0, metadata !153, metadata !"operator=", metadata !"operator=", metadata !"_ZN11ap_int_baseILi12ELb0ELb1EEaSERKS0_", metadata !154, i32 1582, metadata !273, i1 false, i1 false, i32 0, i32 0, null, i32 256, i1 false, null, null, i32 0, metadata !166, i32 1582} ; [ DW_TAG_subprogram ]
!273 = metadata !{i32 786453, i32 0, metadata !"", i32 0, i32 0, i64 0, i64 0, i64 0, i32 0, null, metadata !274, i32 0, i32 0} ; [ DW_TAG_subroutine_type ]
!274 = metadata !{metadata !271, metadata !181, metadata !185}
!275 = metadata !{i32 786478, i32 0, metadata !153, metadata !"operator=", metadata !"operator=", metadata !"_ZN11ap_int_baseILi12ELb0ELb1EEaSEPKc", metadata !154, i32 1586, metadata !276, i1 false, i1 false, i32 0, i32 0, null, i32 256, i1 false, null, null, i32 0, metadata !166, i32 1586} ; [ DW_TAG_subprogram ]
!276 = metadata !{i32 786453, i32 0, metadata !"", i32 0, i32 0, i64 0, i64 0, i64 0, i32 0, null, metadata !277, i32 0, i32 0} ; [ DW_TAG_subroutine_type ]
!277 = metadata !{metadata !271, metadata !181, metadata !251}
!278 = metadata !{i32 786478, i32 0, metadata !153, metadata !"set", metadata !"set", metadata !"_ZN11ap_int_baseILi12ELb0ELb1EE3setEPKca", metadata !154, i32 1594, metadata !279, i1 false, i1 false, i32 0, i32 0, null, i32 256, i1 false, null, null, i32 0, metadata !166, i32 1594} ; [ DW_TAG_subprogram ]
!279 = metadata !{i32 786453, i32 0, metadata !"", i32 0, i32 0, i64 0, i64 0, i64 0, i32 0, null, metadata !280, i32 0, i32 0} ; [ DW_TAG_subroutine_type ]
!280 = metadata !{metadata !271, metadata !181, metadata !251, metadata !202}
!281 = metadata !{i32 786478, i32 0, metadata !153, metadata !"operator=", metadata !"operator=", metadata !"_ZN11ap_int_baseILi12ELb0ELb1EEaSEa", metadata !154, i32 1608, metadata !282, i1 false, i1 false, i32 0, i32 0, null, i32 256, i1 false, null, null, i32 0, metadata !166, i32 1608} ; [ DW_TAG_subprogram ]
!282 = metadata !{i32 786453, i32 0, metadata !"", i32 0, i32 0, i64 0, i64 0, i64 0, i32 0, null, metadata !283, i32 0, i32 0} ; [ DW_TAG_subroutine_type ]
!283 = metadata !{metadata !271, metadata !181, metadata !202}
!284 = metadata !{i32 786478, i32 0, metadata !153, metadata !"operator=", metadata !"operator=", metadata !"_ZN11ap_int_baseILi12ELb0ELb1EEaSEh", metadata !154, i32 1609, metadata !285, i1 false, i1 false, i32 0, i32 0, null, i32 256, i1 false, null, null, i32 0, metadata !166, i32 1609} ; [ DW_TAG_subprogram ]
!285 = metadata !{i32 786453, i32 0, metadata !"", i32 0, i32 0, i64 0, i64 0, i64 0, i32 0, null, metadata !286, i32 0, i32 0} ; [ DW_TAG_subroutine_type ]
!286 = metadata !{metadata !271, metadata !181, metadata !206}
!287 = metadata !{i32 786478, i32 0, metadata !153, metadata !"operator=", metadata !"operator=", metadata !"_ZN11ap_int_baseILi12ELb0ELb1EEaSEs", metadata !154, i32 1610, metadata !288, i1 false, i1 false, i32 0, i32 0, null, i32 256, i1 false, null, null, i32 0, metadata !166, i32 1610} ; [ DW_TAG_subprogram ]
!288 = metadata !{i32 786453, i32 0, metadata !"", i32 0, i32 0, i64 0, i64 0, i64 0, i32 0, null, metadata !289, i32 0, i32 0} ; [ DW_TAG_subroutine_type ]
!289 = metadata !{metadata !271, metadata !181, metadata !210}
!290 = metadata !{i32 786478, i32 0, metadata !153, metadata !"operator=", metadata !"operator=", metadata !"_ZN11ap_int_baseILi12ELb0ELb1EEaSEt", metadata !154, i32 1611, metadata !291, i1 false, i1 false, i32 0, i32 0, null, i32 256, i1 false, null, null, i32 0, metadata !166, i32 1611} ; [ DW_TAG_subprogram ]
!291 = metadata !{i32 786453, i32 0, metadata !"", i32 0, i32 0, i64 0, i64 0, i64 0, i32 0, null, metadata !292, i32 0, i32 0} ; [ DW_TAG_subroutine_type ]
!292 = metadata !{metadata !271, metadata !181, metadata !214}
!293 = metadata !{i32 786478, i32 0, metadata !153, metadata !"operator=", metadata !"operator=", metadata !"_ZN11ap_int_baseILi12ELb0ELb1EEaSEi", metadata !154, i32 1612, metadata !294, i1 false, i1 false, i32 0, i32 0, null, i32 256, i1 false, null, null, i32 0, metadata !166, i32 1612} ; [ DW_TAG_subprogram ]
!294 = metadata !{i32 786453, i32 0, metadata !"", i32 0, i32 0, i64 0, i64 0, i64 0, i32 0, null, metadata !295, i32 0, i32 0} ; [ DW_TAG_subroutine_type ]
!295 = metadata !{metadata !271, metadata !181, metadata !175}
!296 = metadata !{i32 786478, i32 0, metadata !153, metadata !"operator=", metadata !"operator=", metadata !"_ZN11ap_int_baseILi12ELb0ELb1EEaSEj", metadata !154, i32 1613, metadata !297, i1 false, i1 false, i32 0, i32 0, null, i32 256, i1 false, null, null, i32 0, metadata !166, i32 1613} ; [ DW_TAG_subprogram ]
!297 = metadata !{i32 786453, i32 0, metadata !"", i32 0, i32 0, i64 0, i64 0, i64 0, i32 0, null, metadata !298, i32 0, i32 0} ; [ DW_TAG_subroutine_type ]
!298 = metadata !{metadata !271, metadata !181, metadata !221}
!299 = metadata !{i32 786478, i32 0, metadata !153, metadata !"operator=", metadata !"operator=", metadata !"_ZN11ap_int_baseILi12ELb0ELb1EEaSEx", metadata !154, i32 1614, metadata !300, i1 false, i1 false, i32 0, i32 0, null, i32 256, i1 false, null, null, i32 0, metadata !166, i32 1614} ; [ DW_TAG_subprogram ]
!300 = metadata !{i32 786453, i32 0, metadata !"", i32 0, i32 0, i64 0, i64 0, i64 0, i32 0, null, metadata !301, i32 0, i32 0} ; [ DW_TAG_subroutine_type ]
!301 = metadata !{metadata !271, metadata !181, metadata !233}
!302 = metadata !{i32 786478, i32 0, metadata !153, metadata !"operator=", metadata !"operator=", metadata !"_ZN11ap_int_baseILi12ELb0ELb1EEaSEy", metadata !154, i32 1615, metadata !303, i1 false, i1 false, i32 0, i32 0, null, i32 256, i1 false, null, null, i32 0, metadata !166, i32 1615} ; [ DW_TAG_subprogram ]
!303 = metadata !{i32 786453, i32 0, metadata !"", i32 0, i32 0, i64 0, i64 0, i64 0, i32 0, null, metadata !304, i32 0, i32 0} ; [ DW_TAG_subroutine_type ]
!304 = metadata !{metadata !271, metadata !181, metadata !238}
!305 = metadata !{i32 786478, i32 0, metadata !153, metadata !"operator unsigned short", metadata !"operator unsigned short", metadata !"_ZNK11ap_int_baseILi12ELb0ELb1EEcvtEv", metadata !154, i32 1653, metadata !306, i1 false, i1 false, i32 0, i32 0, null, i32 256, i1 false, null, null, i32 0, metadata !166, i32 1653} ; [ DW_TAG_subprogram ]
!306 = metadata !{i32 786453, i32 0, metadata !"", i32 0, i32 0, i64 0, i64 0, i64 0, i32 0, null, metadata !307, i32 0, i32 0} ; [ DW_TAG_subroutine_type ]
!307 = metadata !{metadata !308, metadata !314}
!308 = metadata !{i32 786454, metadata !153, metadata !"RetType", metadata !154, i32 1402, i64 0, i64 0, i64 0, i32 0, metadata !309} ; [ DW_TAG_typedef ]
!309 = metadata !{i32 786454, metadata !310, metadata !"Type", metadata !154, i32 1376, i64 0, i64 0, i64 0, i32 0, metadata !214} ; [ DW_TAG_typedef ]
!310 = metadata !{i32 786434, null, metadata !"retval<2, false>", metadata !154, i32 1375, i64 8, i64 8, i32 0, i32 0, null, metadata !311, i32 0, null, metadata !312} ; [ DW_TAG_class_type ]
!311 = metadata !{i32 0}
!312 = metadata !{metadata !313, metadata !176}
!313 = metadata !{i32 786480, null, metadata !"_AP_N", metadata !175, i64 2, null, i32 0, i32 0} ; [ DW_TAG_template_value_parameter ]
!314 = metadata !{i32 786447, i32 0, metadata !"", i32 0, i32 0, i64 64, i64 64, i64 0, i32 64, metadata !186} ; [ DW_TAG_pointer_type ]
!315 = metadata !{i32 786478, i32 0, metadata !153, metadata !"to_bool", metadata !"to_bool", metadata !"_ZNK11ap_int_baseILi12ELb0ELb1EE7to_boolEv", metadata !154, i32 1659, metadata !316, i1 false, i1 false, i32 0, i32 0, null, i32 256, i1 false, null, null, i32 0, metadata !166, i32 1659} ; [ DW_TAG_subprogram ]
!316 = metadata !{i32 786453, i32 0, metadata !"", i32 0, i32 0, i64 0, i64 0, i64 0, i32 0, null, metadata !317, i32 0, i32 0} ; [ DW_TAG_subroutine_type ]
!317 = metadata !{metadata !177, metadata !314}
!318 = metadata !{i32 786478, i32 0, metadata !153, metadata !"to_uchar", metadata !"to_uchar", metadata !"_ZNK11ap_int_baseILi12ELb0ELb1EE8to_ucharEv", metadata !154, i32 1660, metadata !319, i1 false, i1 false, i32 0, i32 0, null, i32 256, i1 false, null, null, i32 0, metadata !166, i32 1660} ; [ DW_TAG_subprogram ]
!319 = metadata !{i32 786453, i32 0, metadata !"", i32 0, i32 0, i64 0, i64 0, i64 0, i32 0, null, metadata !320, i32 0, i32 0} ; [ DW_TAG_subroutine_type ]
!320 = metadata !{metadata !206, metadata !314}
!321 = metadata !{i32 786478, i32 0, metadata !153, metadata !"to_char", metadata !"to_char", metadata !"_ZNK11ap_int_baseILi12ELb0ELb1EE7to_charEv", metadata !154, i32 1661, metadata !322, i1 false, i1 false, i32 0, i32 0, null, i32 256, i1 false, null, null, i32 0, metadata !166, i32 1661} ; [ DW_TAG_subprogram ]
!322 = metadata !{i32 786453, i32 0, metadata !"", i32 0, i32 0, i64 0, i64 0, i64 0, i32 0, null, metadata !323, i32 0, i32 0} ; [ DW_TAG_subroutine_type ]
!323 = metadata !{metadata !202, metadata !314}
!324 = metadata !{i32 786478, i32 0, metadata !153, metadata !"to_ushort", metadata !"to_ushort", metadata !"_ZNK11ap_int_baseILi12ELb0ELb1EE9to_ushortEv", metadata !154, i32 1662, metadata !325, i1 false, i1 false, i32 0, i32 0, null, i32 256, i1 false, null, null, i32 0, metadata !166, i32 1662} ; [ DW_TAG_subprogram ]
!325 = metadata !{i32 786453, i32 0, metadata !"", i32 0, i32 0, i64 0, i64 0, i64 0, i32 0, null, metadata !326, i32 0, i32 0} ; [ DW_TAG_subroutine_type ]
!326 = metadata !{metadata !214, metadata !314}
!327 = metadata !{i32 786478, i32 0, metadata !153, metadata !"to_short", metadata !"to_short", metadata !"_ZNK11ap_int_baseILi12ELb0ELb1EE8to_shortEv", metadata !154, i32 1663, metadata !328, i1 false, i1 false, i32 0, i32 0, null, i32 256, i1 false, null, null, i32 0, metadata !166, i32 1663} ; [ DW_TAG_subprogram ]
!328 = metadata !{i32 786453, i32 0, metadata !"", i32 0, i32 0, i64 0, i64 0, i64 0, i32 0, null, metadata !329, i32 0, i32 0} ; [ DW_TAG_subroutine_type ]
!329 = metadata !{metadata !210, metadata !314}
!330 = metadata !{i32 786478, i32 0, metadata !153, metadata !"to_int", metadata !"to_int", metadata !"_ZNK11ap_int_baseILi12ELb0ELb1EE6to_intEv", metadata !154, i32 1664, metadata !331, i1 false, i1 false, i32 0, i32 0, null, i32 256, i1 false, null, null, i32 0, metadata !166, i32 1664} ; [ DW_TAG_subprogram ]
!331 = metadata !{i32 786453, i32 0, metadata !"", i32 0, i32 0, i64 0, i64 0, i64 0, i32 0, null, metadata !332, i32 0, i32 0} ; [ DW_TAG_subroutine_type ]
!332 = metadata !{metadata !175, metadata !314}
!333 = metadata !{i32 786478, i32 0, metadata !153, metadata !"to_uint", metadata !"to_uint", metadata !"_ZNK11ap_int_baseILi12ELb0ELb1EE7to_uintEv", metadata !154, i32 1665, metadata !334, i1 false, i1 false, i32 0, i32 0, null, i32 256, i1 false, null, null, i32 0, metadata !166, i32 1665} ; [ DW_TAG_subprogram ]
!334 = metadata !{i32 786453, i32 0, metadata !"", i32 0, i32 0, i64 0, i64 0, i64 0, i32 0, null, metadata !335, i32 0, i32 0} ; [ DW_TAG_subroutine_type ]
!335 = metadata !{metadata !221, metadata !314}
!336 = metadata !{i32 786478, i32 0, metadata !153, metadata !"to_long", metadata !"to_long", metadata !"_ZNK11ap_int_baseILi12ELb0ELb1EE7to_longEv", metadata !154, i32 1666, metadata !337, i1 false, i1 false, i32 0, i32 0, null, i32 256, i1 false, null, null, i32 0, metadata !166, i32 1666} ; [ DW_TAG_subprogram ]
!337 = metadata !{i32 786453, i32 0, metadata !"", i32 0, i32 0, i64 0, i64 0, i64 0, i32 0, null, metadata !338, i32 0, i32 0} ; [ DW_TAG_subroutine_type ]
!338 = metadata !{metadata !225, metadata !314}
!339 = metadata !{i32 786478, i32 0, metadata !153, metadata !"to_ulong", metadata !"to_ulong", metadata !"_ZNK11ap_int_baseILi12ELb0ELb1EE8to_ulongEv", metadata !154, i32 1667, metadata !340, i1 false, i1 false, i32 0, i32 0, null, i32 256, i1 false, null, null, i32 0, metadata !166, i32 1667} ; [ DW_TAG_subprogram ]
!340 = metadata !{i32 786453, i32 0, metadata !"", i32 0, i32 0, i64 0, i64 0, i64 0, i32 0, null, metadata !341, i32 0, i32 0} ; [ DW_TAG_subroutine_type ]
!341 = metadata !{metadata !229, metadata !314}
!342 = metadata !{i32 786478, i32 0, metadata !153, metadata !"to_int64", metadata !"to_int64", metadata !"_ZNK11ap_int_baseILi12ELb0ELb1EE8to_int64Ev", metadata !154, i32 1668, metadata !343, i1 false, i1 false, i32 0, i32 0, null, i32 256, i1 false, null, null, i32 0, metadata !166, i32 1668} ; [ DW_TAG_subprogram ]
!343 = metadata !{i32 786453, i32 0, metadata !"", i32 0, i32 0, i64 0, i64 0, i64 0, i32 0, null, metadata !344, i32 0, i32 0} ; [ DW_TAG_subroutine_type ]
!344 = metadata !{metadata !233, metadata !314}
!345 = metadata !{i32 786478, i32 0, metadata !153, metadata !"to_uint64", metadata !"to_uint64", metadata !"_ZNK11ap_int_baseILi12ELb0ELb1EE9to_uint64Ev", metadata !154, i32 1669, metadata !346, i1 false, i1 false, i32 0, i32 0, null, i32 256, i1 false, null, null, i32 0, metadata !166, i32 1669} ; [ DW_TAG_subprogram ]
!346 = metadata !{i32 786453, i32 0, metadata !"", i32 0, i32 0, i64 0, i64 0, i64 0, i32 0, null, metadata !347, i32 0, i32 0} ; [ DW_TAG_subroutine_type ]
!347 = metadata !{metadata !238, metadata !314}
!348 = metadata !{i32 786478, i32 0, metadata !153, metadata !"to_double", metadata !"to_double", metadata !"_ZNK11ap_int_baseILi12ELb0ELb1EE9to_doubleEv", metadata !154, i32 1670, metadata !349, i1 false, i1 false, i32 0, i32 0, null, i32 256, i1 false, null, null, i32 0, metadata !166, i32 1670} ; [ DW_TAG_subprogram ]
!349 = metadata !{i32 786453, i32 0, metadata !"", i32 0, i32 0, i64 0, i64 0, i64 0, i32 0, null, metadata !350, i32 0, i32 0} ; [ DW_TAG_subroutine_type ]
!350 = metadata !{metadata !247, metadata !314}
!351 = metadata !{i32 786478, i32 0, metadata !153, metadata !"length", metadata !"length", metadata !"_ZNK11ap_int_baseILi12ELb0ELb1EE6lengthEv", metadata !154, i32 1684, metadata !331, i1 false, i1 false, i32 0, i32 0, null, i32 256, i1 false, null, null, i32 0, metadata !166, i32 1684} ; [ DW_TAG_subprogram ]
!352 = metadata !{i32 786478, i32 0, metadata !153, metadata !"length", metadata !"length", metadata !"_ZNVK11ap_int_baseILi12ELb0ELb1EE6lengthEv", metadata !154, i32 1685, metadata !353, i1 false, i1 false, i32 0, i32 0, null, i32 256, i1 false, null, null, i32 0, metadata !166, i32 1685} ; [ DW_TAG_subprogram ]
!353 = metadata !{i32 786453, i32 0, metadata !"", i32 0, i32 0, i64 0, i64 0, i64 0, i32 0, null, metadata !354, i32 0, i32 0} ; [ DW_TAG_subroutine_type ]
!354 = metadata !{metadata !175, metadata !355}
!355 = metadata !{i32 786447, i32 0, metadata !"", i32 0, i32 0, i64 64, i64 64, i64 0, i32 64, metadata !194} ; [ DW_TAG_pointer_type ]
!356 = metadata !{i32 786478, i32 0, metadata !153, metadata !"reverse", metadata !"reverse", metadata !"_ZN11ap_int_baseILi12ELb0ELb1EE7reverseEv", metadata !154, i32 1690, metadata !357, i1 false, i1 false, i32 0, i32 0, null, i32 256, i1 false, null, null, i32 0, metadata !166, i32 1690} ; [ DW_TAG_subprogram ]
!357 = metadata !{i32 786453, i32 0, metadata !"", i32 0, i32 0, i64 0, i64 0, i64 0, i32 0, null, metadata !358, i32 0, i32 0} ; [ DW_TAG_subroutine_type ]
!358 = metadata !{metadata !271, metadata !181}
!359 = metadata !{i32 786478, i32 0, metadata !153, metadata !"iszero", metadata !"iszero", metadata !"_ZNK11ap_int_baseILi12ELb0ELb1EE6iszeroEv", metadata !154, i32 1696, metadata !316, i1 false, i1 false, i32 0, i32 0, null, i32 256, i1 false, null, null, i32 0, metadata !166, i32 1696} ; [ DW_TAG_subprogram ]
!360 = metadata !{i32 786478, i32 0, metadata !153, metadata !"is_zero", metadata !"is_zero", metadata !"_ZNK11ap_int_baseILi12ELb0ELb1EE7is_zeroEv", metadata !154, i32 1701, metadata !316, i1 false, i1 false, i32 0, i32 0, null, i32 256, i1 false, null, null, i32 0, metadata !166, i32 1701} ; [ DW_TAG_subprogram ]
!361 = metadata !{i32 786478, i32 0, metadata !153, metadata !"sign", metadata !"sign", metadata !"_ZNK11ap_int_baseILi12ELb0ELb1EE4signEv", metadata !154, i32 1706, metadata !316, i1 false, i1 false, i32 0, i32 0, null, i32 256, i1 false, null, null, i32 0, metadata !166, i32 1706} ; [ DW_TAG_subprogram ]
!362 = metadata !{i32 786478, i32 0, metadata !153, metadata !"clear", metadata !"clear", metadata !"_ZN11ap_int_baseILi12ELb0ELb1EE5clearEi", metadata !154, i32 1714, metadata !216, i1 false, i1 false, i32 0, i32 0, null, i32 256, i1 false, null, null, i32 0, metadata !166, i32 1714} ; [ DW_TAG_subprogram ]
!363 = metadata !{i32 786478, i32 0, metadata !153, metadata !"invert", metadata !"invert", metadata !"_ZN11ap_int_baseILi12ELb0ELb1EE6invertEi", metadata !154, i32 1720, metadata !216, i1 false, i1 false, i32 0, i32 0, null, i32 256, i1 false, null, null, i32 0, metadata !166, i32 1720} ; [ DW_TAG_subprogram ]
!364 = metadata !{i32 786478, i32 0, metadata !153, metadata !"test", metadata !"test", metadata !"_ZNK11ap_int_baseILi12ELb0ELb1EE4testEi", metadata !154, i32 1728, metadata !365, i1 false, i1 false, i32 0, i32 0, null, i32 256, i1 false, null, null, i32 0, metadata !166, i32 1728} ; [ DW_TAG_subprogram ]
!365 = metadata !{i32 786453, i32 0, metadata !"", i32 0, i32 0, i64 0, i64 0, i64 0, i32 0, null, metadata !366, i32 0, i32 0} ; [ DW_TAG_subroutine_type ]
!366 = metadata !{metadata !177, metadata !314, metadata !175}
!367 = metadata !{i32 786478, i32 0, metadata !153, metadata !"set", metadata !"set", metadata !"_ZN11ap_int_baseILi12ELb0ELb1EE3setEi", metadata !154, i32 1734, metadata !216, i1 false, i1 false, i32 0, i32 0, null, i32 256, i1 false, null, null, i32 0, metadata !166, i32 1734} ; [ DW_TAG_subprogram ]
!368 = metadata !{i32 786478, i32 0, metadata !153, metadata !"set", metadata !"set", metadata !"_ZN11ap_int_baseILi12ELb0ELb1EE3setEib", metadata !154, i32 1740, metadata !369, i1 false, i1 false, i32 0, i32 0, null, i32 256, i1 false, null, null, i32 0, metadata !166, i32 1740} ; [ DW_TAG_subprogram ]
!369 = metadata !{i32 786453, i32 0, metadata !"", i32 0, i32 0, i64 0, i64 0, i64 0, i32 0, null, metadata !370, i32 0, i32 0} ; [ DW_TAG_subroutine_type ]
!370 = metadata !{null, metadata !181, metadata !175, metadata !177}
!371 = metadata !{i32 786478, i32 0, metadata !153, metadata !"lrotate", metadata !"lrotate", metadata !"_ZN11ap_int_baseILi12ELb0ELb1EE7lrotateEi", metadata !154, i32 1747, metadata !216, i1 false, i1 false, i32 0, i32 0, null, i32 256, i1 false, null, null, i32 0, metadata !166, i32 1747} ; [ DW_TAG_subprogram ]
!372 = metadata !{i32 786478, i32 0, metadata !153, metadata !"rrotate", metadata !"rrotate", metadata !"_ZN11ap_int_baseILi12ELb0ELb1EE7rrotateEi", metadata !154, i32 1756, metadata !216, i1 false, i1 false, i32 0, i32 0, null, i32 256, i1 false, null, null, i32 0, metadata !166, i32 1756} ; [ DW_TAG_subprogram ]
!373 = metadata !{i32 786478, i32 0, metadata !153, metadata !"set_bit", metadata !"set_bit", metadata !"_ZN11ap_int_baseILi12ELb0ELb1EE7set_bitEib", metadata !154, i32 1764, metadata !369, i1 false, i1 false, i32 0, i32 0, null, i32 256, i1 false, null, null, i32 0, metadata !166, i32 1764} ; [ DW_TAG_subprogram ]
!374 = metadata !{i32 786478, i32 0, metadata !153, metadata !"get_bit", metadata !"get_bit", metadata !"_ZNK11ap_int_baseILi12ELb0ELb1EE7get_bitEi", metadata !154, i32 1769, metadata !365, i1 false, i1 false, i32 0, i32 0, null, i32 256, i1 false, null, null, i32 0, metadata !166, i32 1769} ; [ DW_TAG_subprogram ]
!375 = metadata !{i32 786478, i32 0, metadata !153, metadata !"b_not", metadata !"b_not", metadata !"_ZN11ap_int_baseILi12ELb0ELb1EE5b_notEv", metadata !154, i32 1774, metadata !179, i1 false, i1 false, i32 0, i32 0, null, i32 256, i1 false, null, null, i32 0, metadata !166, i32 1774} ; [ DW_TAG_subprogram ]
!376 = metadata !{i32 786478, i32 0, metadata !153, metadata !"countLeadingZeros", metadata !"countLeadingZeros", metadata !"_ZN11ap_int_baseILi12ELb0ELb1EE17countLeadingZerosEv", metadata !154, i32 1781, metadata !377, i1 false, i1 false, i32 0, i32 0, null, i32 256, i1 false, null, null, i32 0, metadata !166, i32 1781} ; [ DW_TAG_subprogram ]
!377 = metadata !{i32 786453, i32 0, metadata !"", i32 0, i32 0, i64 0, i64 0, i64 0, i32 0, null, metadata !378, i32 0, i32 0} ; [ DW_TAG_subroutine_type ]
!378 = metadata !{metadata !175, metadata !181}
!379 = metadata !{i32 786478, i32 0, metadata !153, metadata !"operator++", metadata !"operator++", metadata !"_ZN11ap_int_baseILi12ELb0ELb1EEppEv", metadata !154, i32 1838, metadata !357, i1 false, i1 false, i32 0, i32 0, null, i32 256, i1 false, null, null, i32 0, metadata !166, i32 1838} ; [ DW_TAG_subprogram ]
!380 = metadata !{i32 786478, i32 0, metadata !153, metadata !"operator--", metadata !"operator--", metadata !"_ZN11ap_int_baseILi12ELb0ELb1EEmmEv", metadata !154, i32 1842, metadata !357, i1 false, i1 false, i32 0, i32 0, null, i32 256, i1 false, null, null, i32 0, metadata !166, i32 1842} ; [ DW_TAG_subprogram ]
!381 = metadata !{i32 786478, i32 0, metadata !153, metadata !"operator++", metadata !"operator++", metadata !"_ZN11ap_int_baseILi12ELb0ELb1EEppEi", metadata !154, i32 1850, metadata !382, i1 false, i1 false, i32 0, i32 0, null, i32 256, i1 false, null, null, i32 0, metadata !166, i32 1850} ; [ DW_TAG_subprogram ]
!382 = metadata !{i32 786453, i32 0, metadata !"", i32 0, i32 0, i64 0, i64 0, i64 0, i32 0, null, metadata !383, i32 0, i32 0} ; [ DW_TAG_subroutine_type ]
!383 = metadata !{metadata !186, metadata !181, metadata !175}
!384 = metadata !{i32 786478, i32 0, metadata !153, metadata !"operator--", metadata !"operator--", metadata !"_ZN11ap_int_baseILi12ELb0ELb1EEmmEi", metadata !154, i32 1855, metadata !382, i1 false, i1 false, i32 0, i32 0, null, i32 256, i1 false, null, null, i32 0, metadata !166, i32 1855} ; [ DW_TAG_subprogram ]
!385 = metadata !{i32 786478, i32 0, metadata !153, metadata !"operator+", metadata !"operator+", metadata !"_ZNK11ap_int_baseILi12ELb0ELb1EEpsEv", metadata !154, i32 1864, metadata !386, i1 false, i1 false, i32 0, i32 0, null, i32 256, i1 false, null, null, i32 0, metadata !166, i32 1864} ; [ DW_TAG_subprogram ]
!386 = metadata !{i32 786453, i32 0, metadata !"", i32 0, i32 0, i64 0, i64 0, i64 0, i32 0, null, metadata !387, i32 0, i32 0} ; [ DW_TAG_subroutine_type ]
!387 = metadata !{metadata !153, metadata !314}
!388 = metadata !{i32 786478, i32 0, metadata !153, metadata !"operator!", metadata !"operator!", metadata !"_ZNK11ap_int_baseILi12ELb0ELb1EEntEv", metadata !154, i32 1870, metadata !316, i1 false, i1 false, i32 0, i32 0, null, i32 256, i1 false, null, null, i32 0, metadata !166, i32 1870} ; [ DW_TAG_subprogram ]
!389 = metadata !{i32 786478, i32 0, metadata !153, metadata !"operator-", metadata !"operator-", metadata !"_ZNK11ap_int_baseILi12ELb0ELb1EEngEv", metadata !154, i32 1875, metadata !390, i1 false, i1 false, i32 0, i32 0, null, i32 256, i1 false, null, null, i32 0, metadata !166, i32 1875} ; [ DW_TAG_subprogram ]
!390 = metadata !{i32 786453, i32 0, metadata !"", i32 0, i32 0, i64 0, i64 0, i64 0, i32 0, null, metadata !391, i32 0, i32 0} ; [ DW_TAG_subroutine_type ]
!391 = metadata !{metadata !392, metadata !314}
!392 = metadata !{i32 786434, null, metadata !"ap_int_base<13, true, true>", metadata !154, i32 650, i32 0, i32 0, i32 0, i32 4, null, null, i32 0} ; [ DW_TAG_class_type ]
!393 = metadata !{i32 786478, i32 0, metadata !153, metadata !"range", metadata !"range", metadata !"_ZN11ap_int_baseILi12ELb0ELb1EE5rangeEii", metadata !154, i32 2005, metadata !394, i1 false, i1 false, i32 0, i32 0, null, i32 256, i1 false, null, null, i32 0, metadata !166, i32 2005} ; [ DW_TAG_subprogram ]
!394 = metadata !{i32 786453, i32 0, metadata !"", i32 0, i32 0, i64 0, i64 0, i64 0, i32 0, null, metadata !395, i32 0, i32 0} ; [ DW_TAG_subroutine_type ]
!395 = metadata !{metadata !396, metadata !181, metadata !175, metadata !175}
!396 = metadata !{i32 786434, null, metadata !"ap_range_ref<12, false>", metadata !154, i32 923, i32 0, i32 0, i32 0, i32 4, null, null, i32 0} ; [ DW_TAG_class_type ]
!397 = metadata !{i32 786478, i32 0, metadata !153, metadata !"operator()", metadata !"operator()", metadata !"_ZN11ap_int_baseILi12ELb0ELb1EEclEii", metadata !154, i32 2011, metadata !394, i1 false, i1 false, i32 0, i32 0, null, i32 256, i1 false, null, null, i32 0, metadata !166, i32 2011} ; [ DW_TAG_subprogram ]
!398 = metadata !{i32 786478, i32 0, metadata !153, metadata !"range", metadata !"range", metadata !"_ZNK11ap_int_baseILi12ELb0ELb1EE5rangeEii", metadata !154, i32 2017, metadata !399, i1 false, i1 false, i32 0, i32 0, null, i32 256, i1 false, null, null, i32 0, metadata !166, i32 2017} ; [ DW_TAG_subprogram ]
!399 = metadata !{i32 786453, i32 0, metadata !"", i32 0, i32 0, i64 0, i64 0, i64 0, i32 0, null, metadata !400, i32 0, i32 0} ; [ DW_TAG_subroutine_type ]
!400 = metadata !{metadata !396, metadata !314, metadata !175, metadata !175}
!401 = metadata !{i32 786478, i32 0, metadata !153, metadata !"operator()", metadata !"operator()", metadata !"_ZNK11ap_int_baseILi12ELb0ELb1EEclEii", metadata !154, i32 2023, metadata !399, i1 false, i1 false, i32 0, i32 0, null, i32 256, i1 false, null, null, i32 0, metadata !166, i32 2023} ; [ DW_TAG_subprogram ]
!402 = metadata !{i32 786478, i32 0, metadata !153, metadata !"operator[]", metadata !"operator[]", metadata !"_ZN11ap_int_baseILi12ELb0ELb1EEixEi", metadata !154, i32 2042, metadata !403, i1 false, i1 false, i32 0, i32 0, null, i32 256, i1 false, null, null, i32 0, metadata !166, i32 2042} ; [ DW_TAG_subprogram ]
!403 = metadata !{i32 786453, i32 0, metadata !"", i32 0, i32 0, i64 0, i64 0, i64 0, i32 0, null, metadata !404, i32 0, i32 0} ; [ DW_TAG_subroutine_type ]
!404 = metadata !{metadata !405, metadata !181, metadata !175}
!405 = metadata !{i32 786434, null, metadata !"ap_bit_ref<12, false>", metadata !154, i32 1193, i32 0, i32 0, i32 0, i32 4, null, null, i32 0} ; [ DW_TAG_class_type ]
!406 = metadata !{i32 786478, i32 0, metadata !153, metadata !"operator[]", metadata !"operator[]", metadata !"_ZNK11ap_int_baseILi12ELb0ELb1EEixEi", metadata !154, i32 2056, metadata !365, i1 false, i1 false, i32 0, i32 0, null, i32 256, i1 false, null, null, i32 0, metadata !166, i32 2056} ; [ DW_TAG_subprogram ]
!407 = metadata !{i32 786478, i32 0, metadata !153, metadata !"bit", metadata !"bit", metadata !"_ZN11ap_int_baseILi12ELb0ELb1EE3bitEi", metadata !154, i32 2070, metadata !403, i1 false, i1 false, i32 0, i32 0, null, i32 256, i1 false, null, null, i32 0, metadata !166, i32 2070} ; [ DW_TAG_subprogram ]
!408 = metadata !{i32 786478, i32 0, metadata !153, metadata !"bit", metadata !"bit", metadata !"_ZNK11ap_int_baseILi12ELb0ELb1EE3bitEi", metadata !154, i32 2084, metadata !365, i1 false, i1 false, i32 0, i32 0, null, i32 256, i1 false, null, null, i32 0, metadata !166, i32 2084} ; [ DW_TAG_subprogram ]
!409 = metadata !{i32 786478, i32 0, metadata !153, metadata !"and_reduce", metadata !"and_reduce", metadata !"_ZN11ap_int_baseILi12ELb0ELb1EE10and_reduceEv", metadata !154, i32 2264, metadata !410, i1 false, i1 false, i32 0, i32 0, null, i32 256, i1 false, null, null, i32 0, metadata !166, i32 2264} ; [ DW_TAG_subprogram ]
!410 = metadata !{i32 786453, i32 0, metadata !"", i32 0, i32 0, i64 0, i64 0, i64 0, i32 0, null, metadata !411, i32 0, i32 0} ; [ DW_TAG_subroutine_type ]
!411 = metadata !{metadata !177, metadata !181}
!412 = metadata !{i32 786478, i32 0, metadata !153, metadata !"nand_reduce", metadata !"nand_reduce", metadata !"_ZN11ap_int_baseILi12ELb0ELb1EE11nand_reduceEv", metadata !154, i32 2267, metadata !410, i1 false, i1 false, i32 0, i32 0, null, i32 256, i1 false, null, null, i32 0, metadata !166, i32 2267} ; [ DW_TAG_subprogram ]
!413 = metadata !{i32 786478, i32 0, metadata !153, metadata !"or_reduce", metadata !"or_reduce", metadata !"_ZN11ap_int_baseILi12ELb0ELb1EE9or_reduceEv", metadata !154, i32 2270, metadata !410, i1 false, i1 false, i32 0, i32 0, null, i32 256, i1 false, null, null, i32 0, metadata !166, i32 2270} ; [ DW_TAG_subprogram ]
!414 = metadata !{i32 786478, i32 0, metadata !153, metadata !"nor_reduce", metadata !"nor_reduce", metadata !"_ZN11ap_int_baseILi12ELb0ELb1EE10nor_reduceEv", metadata !154, i32 2273, metadata !410, i1 false, i1 false, i32 0, i32 0, null, i32 256, i1 false, null, null, i32 0, metadata !166, i32 2273} ; [ DW_TAG_subprogram ]
!415 = metadata !{i32 786478, i32 0, metadata !153, metadata !"xor_reduce", metadata !"xor_reduce", metadata !"_ZN11ap_int_baseILi12ELb0ELb1EE10xor_reduceEv", metadata !154, i32 2276, metadata !410, i1 false, i1 false, i32 0, i32 0, null, i32 256, i1 false, null, null, i32 0, metadata !166, i32 2276} ; [ DW_TAG_subprogram ]
!416 = metadata !{i32 786478, i32 0, metadata !153, metadata !"xnor_reduce", metadata !"xnor_reduce", metadata !"_ZN11ap_int_baseILi12ELb0ELb1EE11xnor_reduceEv", metadata !154, i32 2279, metadata !410, i1 false, i1 false, i32 0, i32 0, null, i32 256, i1 false, null, null, i32 0, metadata !166, i32 2279} ; [ DW_TAG_subprogram ]
!417 = metadata !{i32 786478, i32 0, metadata !153, metadata !"and_reduce", metadata !"and_reduce", metadata !"_ZNK11ap_int_baseILi12ELb0ELb1EE10and_reduceEv", metadata !154, i32 2283, metadata !316, i1 false, i1 false, i32 0, i32 0, null, i32 256, i1 false, null, null, i32 0, metadata !166, i32 2283} ; [ DW_TAG_subprogram ]
!418 = metadata !{i32 786478, i32 0, metadata !153, metadata !"nand_reduce", metadata !"nand_reduce", metadata !"_ZNK11ap_int_baseILi12ELb0ELb1EE11nand_reduceEv", metadata !154, i32 2286, metadata !316, i1 false, i1 false, i32 0, i32 0, null, i32 256, i1 false, null, null, i32 0, metadata !166, i32 2286} ; [ DW_TAG_subprogram ]
!419 = metadata !{i32 786478, i32 0, metadata !153, metadata !"or_reduce", metadata !"or_reduce", metadata !"_ZNK11ap_int_baseILi12ELb0ELb1EE9or_reduceEv", metadata !154, i32 2289, metadata !316, i1 false, i1 false, i32 0, i32 0, null, i32 256, i1 false, null, null, i32 0, metadata !166, i32 2289} ; [ DW_TAG_subprogram ]
!420 = metadata !{i32 786478, i32 0, metadata !153, metadata !"nor_reduce", metadata !"nor_reduce", metadata !"_ZNK11ap_int_baseILi12ELb0ELb1EE10nor_reduceEv", metadata !154, i32 2292, metadata !316, i1 false, i1 false, i32 0, i32 0, null, i32 256, i1 false, null, null, i32 0, metadata !166, i32 2292} ; [ DW_TAG_subprogram ]
!421 = metadata !{i32 786478, i32 0, metadata !153, metadata !"xor_reduce", metadata !"xor_reduce", metadata !"_ZNK11ap_int_baseILi12ELb0ELb1EE10xor_reduceEv", metadata !154, i32 2295, metadata !316, i1 false, i1 false, i32 0, i32 0, null, i32 256, i1 false, null, null, i32 0, metadata !166, i32 2295} ; [ DW_TAG_subprogram ]
!422 = metadata !{i32 786478, i32 0, metadata !153, metadata !"xnor_reduce", metadata !"xnor_reduce", metadata !"_ZNK11ap_int_baseILi12ELb0ELb1EE11xnor_reduceEv", metadata !154, i32 2298, metadata !316, i1 false, i1 false, i32 0, i32 0, null, i32 256, i1 false, null, null, i32 0, metadata !166, i32 2298} ; [ DW_TAG_subprogram ]
!423 = metadata !{i32 786478, i32 0, metadata !153, metadata !"to_string", metadata !"to_string", metadata !"_ZNK11ap_int_baseILi12ELb0ELb1EE9to_stringEPci8BaseModeb", metadata !154, i32 2305, metadata !424, i1 false, i1 false, i32 0, i32 0, null, i32 256, i1 false, null, null, i32 0, metadata !166, i32 2305} ; [ DW_TAG_subprogram ]
!424 = metadata !{i32 786453, i32 0, metadata !"", i32 0, i32 0, i64 0, i64 0, i64 0, i32 0, null, metadata !425, i32 0, i32 0} ; [ DW_TAG_subroutine_type ]
!425 = metadata !{null, metadata !314, metadata !426, metadata !175, metadata !427, metadata !177}
!426 = metadata !{i32 786447, null, metadata !"", null, i32 0, i64 64, i64 64, i64 0, i32 0, metadata !253} ; [ DW_TAG_pointer_type ]
!427 = metadata !{i32 786436, null, metadata !"BaseMode", metadata !154, i32 602, i64 5, i64 8, i32 0, i32 0, null, metadata !428, i32 0, i32 0} ; [ DW_TAG_enumeration_type ]
!428 = metadata !{metadata !429, metadata !430, metadata !431, metadata !432}
!429 = metadata !{i32 786472, metadata !"SC_BIN", i64 2} ; [ DW_TAG_enumerator ]
!430 = metadata !{i32 786472, metadata !"SC_OCT", i64 8} ; [ DW_TAG_enumerator ]
!431 = metadata !{i32 786472, metadata !"SC_DEC", i64 10} ; [ DW_TAG_enumerator ]
!432 = metadata !{i32 786472, metadata !"SC_HEX", i64 16} ; [ DW_TAG_enumerator ]
!433 = metadata !{i32 786478, i32 0, metadata !153, metadata !"to_string", metadata !"to_string", metadata !"_ZNK11ap_int_baseILi12ELb0ELb1EE9to_stringE8BaseModeb", metadata !154, i32 2332, metadata !434, i1 false, i1 false, i32 0, i32 0, null, i32 256, i1 false, null, null, i32 0, metadata !166, i32 2332} ; [ DW_TAG_subprogram ]
!434 = metadata !{i32 786453, i32 0, metadata !"", i32 0, i32 0, i64 0, i64 0, i64 0, i32 0, null, metadata !435, i32 0, i32 0} ; [ DW_TAG_subroutine_type ]
!435 = metadata !{metadata !426, metadata !314, metadata !427, metadata !177}
!436 = metadata !{i32 786478, i32 0, metadata !153, metadata !"to_string", metadata !"to_string", metadata !"_ZNK11ap_int_baseILi12ELb0ELb1EE9to_stringEab", metadata !154, i32 2336, metadata !437, i1 false, i1 false, i32 0, i32 0, null, i32 256, i1 false, null, null, i32 0, metadata !166, i32 2336} ; [ DW_TAG_subprogram ]
!437 = metadata !{i32 786453, i32 0, metadata !"", i32 0, i32 0, i64 0, i64 0, i64 0, i32 0, null, metadata !438, i32 0, i32 0} ; [ DW_TAG_subroutine_type ]
!438 = metadata !{metadata !426, metadata !314, metadata !202, metadata !177}
!439 = metadata !{i32 786478, i32 0, metadata !153, metadata !"ap_int_base", metadata !"ap_int_base", metadata !"", metadata !154, i32 1397, metadata !183, i1 false, i1 false, i32 0, i32 0, null, i32 320, i1 false, null, null, i32 0, metadata !166, i32 1397} ; [ DW_TAG_subprogram ]
!440 = metadata !{metadata !441, metadata !176, metadata !442}
!441 = metadata !{i32 786480, null, metadata !"_AP_W", metadata !175, i64 12, null, i32 0, i32 0} ; [ DW_TAG_template_value_parameter ]
!442 = metadata !{i32 786480, null, metadata !"_AP_C", metadata !177, i64 1, null, i32 0, i32 0} ; [ DW_TAG_template_value_parameter ]
!443 = metadata !{i32 786478, i32 0, metadata !149, metadata !"ap_uint", metadata !"ap_uint", metadata !"", metadata !150, i32 183, metadata !444, i1 false, i1 false, i32 0, i32 0, null, i32 256, i1 false, null, null, i32 0, metadata !166, i32 183} ; [ DW_TAG_subprogram ]
!444 = metadata !{i32 786453, i32 0, metadata !"", i32 0, i32 0, i64 0, i64 0, i64 0, i32 0, null, metadata !445, i32 0, i32 0} ; [ DW_TAG_subroutine_type ]
!445 = metadata !{null, metadata !446}
!446 = metadata !{i32 786447, i32 0, metadata !"", i32 0, i32 0, i64 64, i64 64, i64 0, i32 64, metadata !149} ; [ DW_TAG_pointer_type ]
!447 = metadata !{i32 786478, i32 0, metadata !149, metadata !"ap_uint<12>", metadata !"ap_uint<12>", metadata !"", metadata !150, i32 185, metadata !448, i1 false, i1 false, i32 0, i32 0, null, i32 256, i1 false, null, metadata !452, i32 0, metadata !166, i32 185} ; [ DW_TAG_subprogram ]
!448 = metadata !{i32 786453, i32 0, metadata !"", i32 0, i32 0, i64 0, i64 0, i64 0, i32 0, null, metadata !449, i32 0, i32 0} ; [ DW_TAG_subroutine_type ]
!449 = metadata !{null, metadata !446, metadata !450}
!450 = metadata !{i32 786448, null, null, null, i32 0, i64 0, i64 0, i64 0, i32 0, metadata !451} ; [ DW_TAG_reference_type ]
!451 = metadata !{i32 786470, null, metadata !"", null, i32 0, i64 0, i64 0, i64 0, i32 0, metadata !149} ; [ DW_TAG_const_type ]
!452 = metadata !{metadata !188}
!453 = metadata !{i32 786478, i32 0, metadata !149, metadata !"ap_uint<12>", metadata !"ap_uint<12>", metadata !"", metadata !150, i32 191, metadata !454, i1 false, i1 false, i32 0, i32 0, null, i32 256, i1 false, null, metadata !452, i32 0, metadata !166, i32 191} ; [ DW_TAG_subprogram ]
!454 = metadata !{i32 786453, i32 0, metadata !"", i32 0, i32 0, i64 0, i64 0, i64 0, i32 0, null, metadata !455, i32 0, i32 0} ; [ DW_TAG_subroutine_type ]
!455 = metadata !{null, metadata !446, metadata !456}
!456 = metadata !{i32 786448, null, null, null, i32 0, i64 0, i64 0, i64 0, i32 0, metadata !457} ; [ DW_TAG_reference_type ]
!457 = metadata !{i32 786470, null, metadata !"", null, i32 0, i64 0, i64 0, i64 0, i32 0, metadata !458} ; [ DW_TAG_const_type ]
!458 = metadata !{i32 786485, null, metadata !"", null, i32 0, i64 0, i64 0, i64 0, i32 0, metadata !149} ; [ DW_TAG_volatile_type ]
!459 = metadata !{i32 786478, i32 0, metadata !149, metadata !"ap_uint<12, false>", metadata !"ap_uint<12, false>", metadata !"", metadata !150, i32 226, metadata !460, i1 false, i1 false, i32 0, i32 0, null, i32 256, i1 false, null, metadata !187, i32 0, metadata !166, i32 226} ; [ DW_TAG_subprogram ]
!460 = metadata !{i32 786453, i32 0, metadata !"", i32 0, i32 0, i64 0, i64 0, i64 0, i32 0, null, metadata !461, i32 0, i32 0} ; [ DW_TAG_subroutine_type ]
!461 = metadata !{null, metadata !446, metadata !185}
!462 = metadata !{i32 786478, i32 0, metadata !149, metadata !"ap_uint", metadata !"ap_uint", metadata !"", metadata !150, i32 245, metadata !463, i1 false, i1 false, i32 0, i32 0, null, i32 256, i1 false, null, null, i32 0, metadata !166, i32 245} ; [ DW_TAG_subprogram ]
!463 = metadata !{i32 786453, i32 0, metadata !"", i32 0, i32 0, i64 0, i64 0, i64 0, i32 0, null, metadata !464, i32 0, i32 0} ; [ DW_TAG_subroutine_type ]
!464 = metadata !{null, metadata !446, metadata !177}
!465 = metadata !{i32 786478, i32 0, metadata !149, metadata !"ap_uint", metadata !"ap_uint", metadata !"", metadata !150, i32 246, metadata !466, i1 false, i1 false, i32 0, i32 0, null, i32 256, i1 false, null, null, i32 0, metadata !166, i32 246} ; [ DW_TAG_subprogram ]
!466 = metadata !{i32 786453, i32 0, metadata !"", i32 0, i32 0, i64 0, i64 0, i64 0, i32 0, null, metadata !467, i32 0, i32 0} ; [ DW_TAG_subroutine_type ]
!467 = metadata !{null, metadata !446, metadata !202}
!468 = metadata !{i32 786478, i32 0, metadata !149, metadata !"ap_uint", metadata !"ap_uint", metadata !"", metadata !150, i32 247, metadata !469, i1 false, i1 false, i32 0, i32 0, null, i32 256, i1 false, null, null, i32 0, metadata !166, i32 247} ; [ DW_TAG_subprogram ]
!469 = metadata !{i32 786453, i32 0, metadata !"", i32 0, i32 0, i64 0, i64 0, i64 0, i32 0, null, metadata !470, i32 0, i32 0} ; [ DW_TAG_subroutine_type ]
!470 = metadata !{null, metadata !446, metadata !206}
!471 = metadata !{i32 786478, i32 0, metadata !149, metadata !"ap_uint", metadata !"ap_uint", metadata !"", metadata !150, i32 248, metadata !472, i1 false, i1 false, i32 0, i32 0, null, i32 256, i1 false, null, null, i32 0, metadata !166, i32 248} ; [ DW_TAG_subprogram ]
!472 = metadata !{i32 786453, i32 0, metadata !"", i32 0, i32 0, i64 0, i64 0, i64 0, i32 0, null, metadata !473, i32 0, i32 0} ; [ DW_TAG_subroutine_type ]
!473 = metadata !{null, metadata !446, metadata !210}
!474 = metadata !{i32 786478, i32 0, metadata !149, metadata !"ap_uint", metadata !"ap_uint", metadata !"", metadata !150, i32 249, metadata !475, i1 false, i1 false, i32 0, i32 0, null, i32 256, i1 false, null, null, i32 0, metadata !166, i32 249} ; [ DW_TAG_subprogram ]
!475 = metadata !{i32 786453, i32 0, metadata !"", i32 0, i32 0, i64 0, i64 0, i64 0, i32 0, null, metadata !476, i32 0, i32 0} ; [ DW_TAG_subroutine_type ]
!476 = metadata !{null, metadata !446, metadata !214}
!477 = metadata !{i32 786478, i32 0, metadata !149, metadata !"ap_uint", metadata !"ap_uint", metadata !"", metadata !150, i32 250, metadata !478, i1 false, i1 false, i32 0, i32 0, null, i32 256, i1 false, null, null, i32 0, metadata !166, i32 250} ; [ DW_TAG_subprogram ]
!478 = metadata !{i32 786453, i32 0, metadata !"", i32 0, i32 0, i64 0, i64 0, i64 0, i32 0, null, metadata !479, i32 0, i32 0} ; [ DW_TAG_subroutine_type ]
!479 = metadata !{null, metadata !446, metadata !175}
!480 = metadata !{i32 786478, i32 0, metadata !149, metadata !"ap_uint", metadata !"ap_uint", metadata !"", metadata !150, i32 251, metadata !481, i1 false, i1 false, i32 0, i32 0, null, i32 256, i1 false, null, null, i32 0, metadata !166, i32 251} ; [ DW_TAG_subprogram ]
!481 = metadata !{i32 786453, i32 0, metadata !"", i32 0, i32 0, i64 0, i64 0, i64 0, i32 0, null, metadata !482, i32 0, i32 0} ; [ DW_TAG_subroutine_type ]
!482 = metadata !{null, metadata !446, metadata !221}
!483 = metadata !{i32 786478, i32 0, metadata !149, metadata !"ap_uint", metadata !"ap_uint", metadata !"", metadata !150, i32 252, metadata !484, i1 false, i1 false, i32 0, i32 0, null, i32 256, i1 false, null, null, i32 0, metadata !166, i32 252} ; [ DW_TAG_subprogram ]
!484 = metadata !{i32 786453, i32 0, metadata !"", i32 0, i32 0, i64 0, i64 0, i64 0, i32 0, null, metadata !485, i32 0, i32 0} ; [ DW_TAG_subroutine_type ]
!485 = metadata !{null, metadata !446, metadata !225}
!486 = metadata !{i32 786478, i32 0, metadata !149, metadata !"ap_uint", metadata !"ap_uint", metadata !"", metadata !150, i32 253, metadata !487, i1 false, i1 false, i32 0, i32 0, null, i32 256, i1 false, null, null, i32 0, metadata !166, i32 253} ; [ DW_TAG_subprogram ]
!487 = metadata !{i32 786453, i32 0, metadata !"", i32 0, i32 0, i64 0, i64 0, i64 0, i32 0, null, metadata !488, i32 0, i32 0} ; [ DW_TAG_subroutine_type ]
!488 = metadata !{null, metadata !446, metadata !229}
!489 = metadata !{i32 786478, i32 0, metadata !149, metadata !"ap_uint", metadata !"ap_uint", metadata !"", metadata !150, i32 254, metadata !490, i1 false, i1 false, i32 0, i32 0, null, i32 256, i1 false, null, null, i32 0, metadata !166, i32 254} ; [ DW_TAG_subprogram ]
!490 = metadata !{i32 786453, i32 0, metadata !"", i32 0, i32 0, i64 0, i64 0, i64 0, i32 0, null, metadata !491, i32 0, i32 0} ; [ DW_TAG_subroutine_type ]
!491 = metadata !{null, metadata !446, metadata !239}
!492 = metadata !{i32 786478, i32 0, metadata !149, metadata !"ap_uint", metadata !"ap_uint", metadata !"", metadata !150, i32 255, metadata !493, i1 false, i1 false, i32 0, i32 0, null, i32 256, i1 false, null, null, i32 0, metadata !166, i32 255} ; [ DW_TAG_subprogram ]
!493 = metadata !{i32 786453, i32 0, metadata !"", i32 0, i32 0, i64 0, i64 0, i64 0, i32 0, null, metadata !494, i32 0, i32 0} ; [ DW_TAG_subroutine_type ]
!494 = metadata !{null, metadata !446, metadata !234}
!495 = metadata !{i32 786478, i32 0, metadata !149, metadata !"ap_uint", metadata !"ap_uint", metadata !"", metadata !150, i32 256, metadata !496, i1 false, i1 false, i32 0, i32 0, null, i32 256, i1 false, null, null, i32 0, metadata !166, i32 256} ; [ DW_TAG_subprogram ]
!496 = metadata !{i32 786453, i32 0, metadata !"", i32 0, i32 0, i64 0, i64 0, i64 0, i32 0, null, metadata !497, i32 0, i32 0} ; [ DW_TAG_subroutine_type ]
!497 = metadata !{null, metadata !446, metadata !243}
!498 = metadata !{i32 786478, i32 0, metadata !149, metadata !"ap_uint", metadata !"ap_uint", metadata !"", metadata !150, i32 257, metadata !499, i1 false, i1 false, i32 0, i32 0, null, i32 256, i1 false, null, null, i32 0, metadata !166, i32 257} ; [ DW_TAG_subprogram ]
!499 = metadata !{i32 786453, i32 0, metadata !"", i32 0, i32 0, i64 0, i64 0, i64 0, i32 0, null, metadata !500, i32 0, i32 0} ; [ DW_TAG_subroutine_type ]
!500 = metadata !{null, metadata !446, metadata !247}
!501 = metadata !{i32 786478, i32 0, metadata !149, metadata !"ap_uint", metadata !"ap_uint", metadata !"", metadata !150, i32 259, metadata !502, i1 false, i1 false, i32 0, i32 0, null, i32 256, i1 false, null, null, i32 0, metadata !166, i32 259} ; [ DW_TAG_subprogram ]
!502 = metadata !{i32 786453, i32 0, metadata !"", i32 0, i32 0, i64 0, i64 0, i64 0, i32 0, null, metadata !503, i32 0, i32 0} ; [ DW_TAG_subroutine_type ]
!503 = metadata !{null, metadata !446, metadata !251}
!504 = metadata !{i32 786478, i32 0, metadata !149, metadata !"ap_uint", metadata !"ap_uint", metadata !"", metadata !150, i32 260, metadata !505, i1 false, i1 false, i32 0, i32 0, null, i32 256, i1 false, null, null, i32 0, metadata !166, i32 260} ; [ DW_TAG_subprogram ]
!505 = metadata !{i32 786453, i32 0, metadata !"", i32 0, i32 0, i64 0, i64 0, i64 0, i32 0, null, metadata !506, i32 0, i32 0} ; [ DW_TAG_subroutine_type ]
!506 = metadata !{null, metadata !446, metadata !251, metadata !202}
!507 = metadata !{i32 786478, i32 0, metadata !149, metadata !"operator=", metadata !"operator=", metadata !"_ZNV7ap_uintILi12EEaSERKS0_", metadata !150, i32 263, metadata !508, i1 false, i1 false, i32 0, i32 0, null, i32 256, i1 false, null, null, i32 0, metadata !166, i32 263} ; [ DW_TAG_subprogram ]
!508 = metadata !{i32 786453, i32 0, metadata !"", i32 0, i32 0, i64 0, i64 0, i64 0, i32 0, null, metadata !509, i32 0, i32 0} ; [ DW_TAG_subroutine_type ]
!509 = metadata !{null, metadata !510, metadata !450}
!510 = metadata !{i32 786447, i32 0, metadata !"", i32 0, i32 0, i64 64, i64 64, i64 0, i32 64, metadata !458} ; [ DW_TAG_pointer_type ]
!511 = metadata !{i32 786478, i32 0, metadata !149, metadata !"operator=", metadata !"operator=", metadata !"_ZNV7ap_uintILi12EEaSERVKS0_", metadata !150, i32 267, metadata !512, i1 false, i1 false, i32 0, i32 0, null, i32 256, i1 false, null, null, i32 0, metadata !166, i32 267} ; [ DW_TAG_subprogram ]
!512 = metadata !{i32 786453, i32 0, metadata !"", i32 0, i32 0, i64 0, i64 0, i64 0, i32 0, null, metadata !513, i32 0, i32 0} ; [ DW_TAG_subroutine_type ]
!513 = metadata !{null, metadata !510, metadata !456}
!514 = metadata !{i32 786478, i32 0, metadata !149, metadata !"operator=", metadata !"operator=", metadata !"_ZN7ap_uintILi12EEaSERVKS0_", metadata !150, i32 271, metadata !515, i1 false, i1 false, i32 0, i32 0, null, i32 256, i1 false, null, null, i32 0, metadata !166, i32 271} ; [ DW_TAG_subprogram ]
!515 = metadata !{i32 786453, i32 0, metadata !"", i32 0, i32 0, i64 0, i64 0, i64 0, i32 0, null, metadata !516, i32 0, i32 0} ; [ DW_TAG_subroutine_type ]
!516 = metadata !{metadata !517, metadata !446, metadata !456}
!517 = metadata !{i32 786448, null, null, null, i32 0, i64 0, i64 0, i64 0, i32 0, metadata !149} ; [ DW_TAG_reference_type ]
!518 = metadata !{i32 786478, i32 0, metadata !149, metadata !"operator=", metadata !"operator=", metadata !"_ZN7ap_uintILi12EEaSERKS0_", metadata !150, i32 276, metadata !519, i1 false, i1 false, i32 0, i32 0, null, i32 256, i1 false, null, null, i32 0, metadata !166, i32 276} ; [ DW_TAG_subprogram ]
!519 = metadata !{i32 786453, i32 0, metadata !"", i32 0, i32 0, i64 0, i64 0, i64 0, i32 0, null, metadata !520, i32 0, i32 0} ; [ DW_TAG_subroutine_type ]
!520 = metadata !{metadata !517, metadata !446, metadata !450}
!521 = metadata !{i32 786478, i32 0, metadata !149, metadata !"ap_uint", metadata !"ap_uint", metadata !"", metadata !150, i32 180, metadata !448, i1 false, i1 false, i32 0, i32 0, null, i32 320, i1 false, null, null, i32 0, metadata !166, i32 180} ; [ DW_TAG_subprogram ]
!522 = metadata !{i32 786478, i32 0, metadata !149, metadata !"~ap_uint", metadata !"~ap_uint", metadata !"", metadata !150, i32 180, metadata !444, i1 false, i1 false, i32 0, i32 0, null, i32 320, i1 false, null, null, i32 0, metadata !166, i32 180} ; [ DW_TAG_subprogram ]
!523 = metadata !{metadata !441}
!524 = metadata !{i32 786445, metadata !144, metadata !"phi", metadata !145, i32 50, i64 16, i64 16, i64 16, i32 1, metadata !525} ; [ DW_TAG_member ]
!525 = metadata !{i32 786454, null, metadata !"FullPhi_Layer_PS", metadata !145, i32 10, i64 0, i64 0, i64 0, i32 0, metadata !526} ; [ DW_TAG_typedef ]
!526 = metadata !{i32 786434, null, metadata !"ap_uint<14>", metadata !150, i32 180, i64 16, i64 16, i32 0, i32 0, null, metadata !527, i32 0, null, metadata !862} ; [ DW_TAG_class_type ]
!527 = metadata !{metadata !528, metadata !782, metadata !786, metadata !792, metadata !798, metadata !801, metadata !804, metadata !807, metadata !810, metadata !813, metadata !816, metadata !819, metadata !822, metadata !825, metadata !828, metadata !831, metadata !834, metadata !837, metadata !840, metadata !843, metadata !846, metadata !850, metadata !853, metadata !857, metadata !860, metadata !861}
!528 = metadata !{i32 786460, metadata !526, null, metadata !150, i32 0, i64 0, i64 0, i64 0, i32 0, metadata !529} ; [ DW_TAG_inheritance ]
!529 = metadata !{i32 786434, null, metadata !"ap_int_base<14, false, true>", metadata !154, i32 1397, i64 16, i64 16, i32 0, i32 0, null, metadata !530, i32 0, null, metadata !780} ; [ DW_TAG_class_type ]
!530 = metadata !{metadata !531, metadata !547, metadata !551, metadata !558, metadata !564, metadata !567, metadata !570, metadata !573, metadata !576, metadata !579, metadata !582, metadata !585, metadata !588, metadata !591, metadata !594, metadata !597, metadata !600, metadata !603, metadata !606, metadata !609, metadata !613, metadata !616, metadata !619, metadata !620, metadata !624, metadata !627, metadata !630, metadata !633, metadata !636, metadata !639, metadata !642, metadata !645, metadata !648, metadata !651, metadata !654, metadata !657, metadata !662, metadata !665, metadata !668, metadata !671, metadata !674, metadata !677, metadata !680, metadata !683, metadata !686, metadata !689, metadata !692, metadata !695, metadata !698, metadata !699, metadata !703, metadata !706, metadata !707, metadata !708, metadata !709, metadata !710, metadata !711, metadata !714, metadata !715, metadata !718, metadata !719, metadata !720, metadata !721, metadata !722, metadata !723, metadata !726, metadata !727, metadata !728, metadata !731, metadata !732, metadata !735, metadata !736, metadata !740, metadata !744, metadata !745, metadata !748, metadata !749, metadata !753, metadata !754, metadata !755, metadata !756, metadata !759, metadata !760, metadata !761, metadata !762, metadata !763, metadata !764, metadata !765, metadata !766, metadata !767, metadata !768, metadata !769, metadata !770, metadata !773, metadata !776, metadata !779}
!531 = metadata !{i32 786460, metadata !529, null, metadata !154, i32 0, i64 0, i64 0, i64 0, i32 0, metadata !532} ; [ DW_TAG_inheritance ]
!532 = metadata !{i32 786434, null, metadata !"ssdm_int<14 + 1024 * 0, false>", metadata !158, i32 16, i64 16, i64 16, i32 0, i32 0, null, metadata !533, i32 0, null, metadata !545} ; [ DW_TAG_class_type ]
!533 = metadata !{metadata !534, metadata !536, metadata !540}
!534 = metadata !{i32 786445, metadata !532, metadata !"V", metadata !158, i32 16, i64 14, i64 16, i64 0, i32 0, metadata !535} ; [ DW_TAG_member ]
!535 = metadata !{i32 786468, null, metadata !"uint14", null, i32 0, i64 14, i64 16, i64 0, i32 0, i32 7} ; [ DW_TAG_base_type ]
!536 = metadata !{i32 786478, i32 0, metadata !532, metadata !"ssdm_int", metadata !"ssdm_int", metadata !"", metadata !158, i32 16, metadata !537, i1 false, i1 false, i32 0, i32 0, null, i32 256, i1 false, null, null, i32 0, metadata !166, i32 16} ; [ DW_TAG_subprogram ]
!537 = metadata !{i32 786453, i32 0, metadata !"", i32 0, i32 0, i64 0, i64 0, i64 0, i32 0, null, metadata !538, i32 0, i32 0} ; [ DW_TAG_subroutine_type ]
!538 = metadata !{null, metadata !539}
!539 = metadata !{i32 786447, i32 0, metadata !"", i32 0, i32 0, i64 64, i64 64, i64 0, i32 64, metadata !532} ; [ DW_TAG_pointer_type ]
!540 = metadata !{i32 786478, i32 0, metadata !532, metadata !"ssdm_int", metadata !"ssdm_int", metadata !"", metadata !158, i32 16, metadata !541, i1 false, i1 false, i32 0, i32 0, null, i32 320, i1 false, null, null, i32 0, metadata !166, i32 16} ; [ DW_TAG_subprogram ]
!541 = metadata !{i32 786453, i32 0, metadata !"", i32 0, i32 0, i64 0, i64 0, i64 0, i32 0, null, metadata !542, i32 0, i32 0} ; [ DW_TAG_subroutine_type ]
!542 = metadata !{null, metadata !539, metadata !543}
!543 = metadata !{i32 786448, null, null, null, i32 0, i64 0, i64 0, i64 0, i32 0, metadata !544} ; [ DW_TAG_reference_type ]
!544 = metadata !{i32 786470, null, metadata !"", null, i32 0, i64 0, i64 0, i64 0, i32 0, metadata !532} ; [ DW_TAG_const_type ]
!545 = metadata !{metadata !546, metadata !176}
!546 = metadata !{i32 786480, null, metadata !"_AP_N", metadata !175, i64 14, null, i32 0, i32 0} ; [ DW_TAG_template_value_parameter ]
!547 = metadata !{i32 786478, i32 0, metadata !529, metadata !"ap_int_base", metadata !"ap_int_base", metadata !"", metadata !154, i32 1438, metadata !548, i1 false, i1 false, i32 0, i32 0, null, i32 256, i1 false, null, null, i32 0, metadata !166, i32 1438} ; [ DW_TAG_subprogram ]
!548 = metadata !{i32 786453, i32 0, metadata !"", i32 0, i32 0, i64 0, i64 0, i64 0, i32 0, null, metadata !549, i32 0, i32 0} ; [ DW_TAG_subroutine_type ]
!549 = metadata !{null, metadata !550}
!550 = metadata !{i32 786447, i32 0, metadata !"", i32 0, i32 0, i64 64, i64 64, i64 0, i32 64, metadata !529} ; [ DW_TAG_pointer_type ]
!551 = metadata !{i32 786478, i32 0, metadata !529, metadata !"ap_int_base<14, false>", metadata !"ap_int_base<14, false>", metadata !"", metadata !154, i32 1450, metadata !552, i1 false, i1 false, i32 0, i32 0, null, i32 256, i1 false, null, metadata !556, i32 0, metadata !166, i32 1450} ; [ DW_TAG_subprogram ]
!552 = metadata !{i32 786453, i32 0, metadata !"", i32 0, i32 0, i64 0, i64 0, i64 0, i32 0, null, metadata !553, i32 0, i32 0} ; [ DW_TAG_subroutine_type ]
!553 = metadata !{null, metadata !550, metadata !554}
!554 = metadata !{i32 786448, null, null, null, i32 0, i64 0, i64 0, i64 0, i32 0, metadata !555} ; [ DW_TAG_reference_type ]
!555 = metadata !{i32 786470, null, metadata !"", null, i32 0, i64 0, i64 0, i64 0, i32 0, metadata !529} ; [ DW_TAG_const_type ]
!556 = metadata !{metadata !557, metadata !189}
!557 = metadata !{i32 786480, null, metadata !"_AP_W2", metadata !175, i64 14, null, i32 0, i32 0} ; [ DW_TAG_template_value_parameter ]
!558 = metadata !{i32 786478, i32 0, metadata !529, metadata !"ap_int_base<14, false>", metadata !"ap_int_base<14, false>", metadata !"", metadata !154, i32 1453, metadata !559, i1 false, i1 false, i32 0, i32 0, null, i32 256, i1 false, null, metadata !556, i32 0, metadata !166, i32 1453} ; [ DW_TAG_subprogram ]
!559 = metadata !{i32 786453, i32 0, metadata !"", i32 0, i32 0, i64 0, i64 0, i64 0, i32 0, null, metadata !560, i32 0, i32 0} ; [ DW_TAG_subroutine_type ]
!560 = metadata !{null, metadata !550, metadata !561}
!561 = metadata !{i32 786448, null, null, null, i32 0, i64 0, i64 0, i64 0, i32 0, metadata !562} ; [ DW_TAG_reference_type ]
!562 = metadata !{i32 786470, null, metadata !"", null, i32 0, i64 0, i64 0, i64 0, i32 0, metadata !563} ; [ DW_TAG_const_type ]
!563 = metadata !{i32 786485, null, metadata !"", null, i32 0, i64 0, i64 0, i64 0, i32 0, metadata !529} ; [ DW_TAG_volatile_type ]
!564 = metadata !{i32 786478, i32 0, metadata !529, metadata !"ap_int_base", metadata !"ap_int_base", metadata !"", metadata !154, i32 1460, metadata !565, i1 false, i1 false, i32 0, i32 0, null, i32 384, i1 false, null, null, i32 0, metadata !166, i32 1460} ; [ DW_TAG_subprogram ]
!565 = metadata !{i32 786453, i32 0, metadata !"", i32 0, i32 0, i64 0, i64 0, i64 0, i32 0, null, metadata !566, i32 0, i32 0} ; [ DW_TAG_subroutine_type ]
!566 = metadata !{null, metadata !550, metadata !177}
!567 = metadata !{i32 786478, i32 0, metadata !529, metadata !"ap_int_base", metadata !"ap_int_base", metadata !"", metadata !154, i32 1461, metadata !568, i1 false, i1 false, i32 0, i32 0, null, i32 384, i1 false, null, null, i32 0, metadata !166, i32 1461} ; [ DW_TAG_subprogram ]
!568 = metadata !{i32 786453, i32 0, metadata !"", i32 0, i32 0, i64 0, i64 0, i64 0, i32 0, null, metadata !569, i32 0, i32 0} ; [ DW_TAG_subroutine_type ]
!569 = metadata !{null, metadata !550, metadata !202}
!570 = metadata !{i32 786478, i32 0, metadata !529, metadata !"ap_int_base", metadata !"ap_int_base", metadata !"", metadata !154, i32 1462, metadata !571, i1 false, i1 false, i32 0, i32 0, null, i32 384, i1 false, null, null, i32 0, metadata !166, i32 1462} ; [ DW_TAG_subprogram ]
!571 = metadata !{i32 786453, i32 0, metadata !"", i32 0, i32 0, i64 0, i64 0, i64 0, i32 0, null, metadata !572, i32 0, i32 0} ; [ DW_TAG_subroutine_type ]
!572 = metadata !{null, metadata !550, metadata !206}
!573 = metadata !{i32 786478, i32 0, metadata !529, metadata !"ap_int_base", metadata !"ap_int_base", metadata !"", metadata !154, i32 1463, metadata !574, i1 false, i1 false, i32 0, i32 0, null, i32 384, i1 false, null, null, i32 0, metadata !166, i32 1463} ; [ DW_TAG_subprogram ]
!574 = metadata !{i32 786453, i32 0, metadata !"", i32 0, i32 0, i64 0, i64 0, i64 0, i32 0, null, metadata !575, i32 0, i32 0} ; [ DW_TAG_subroutine_type ]
!575 = metadata !{null, metadata !550, metadata !210}
!576 = metadata !{i32 786478, i32 0, metadata !529, metadata !"ap_int_base", metadata !"ap_int_base", metadata !"", metadata !154, i32 1464, metadata !577, i1 false, i1 false, i32 0, i32 0, null, i32 384, i1 false, null, null, i32 0, metadata !166, i32 1464} ; [ DW_TAG_subprogram ]
!577 = metadata !{i32 786453, i32 0, metadata !"", i32 0, i32 0, i64 0, i64 0, i64 0, i32 0, null, metadata !578, i32 0, i32 0} ; [ DW_TAG_subroutine_type ]
!578 = metadata !{null, metadata !550, metadata !214}
!579 = metadata !{i32 786478, i32 0, metadata !529, metadata !"ap_int_base", metadata !"ap_int_base", metadata !"", metadata !154, i32 1465, metadata !580, i1 false, i1 false, i32 0, i32 0, null, i32 384, i1 false, null, null, i32 0, metadata !166, i32 1465} ; [ DW_TAG_subprogram ]
!580 = metadata !{i32 786453, i32 0, metadata !"", i32 0, i32 0, i64 0, i64 0, i64 0, i32 0, null, metadata !581, i32 0, i32 0} ; [ DW_TAG_subroutine_type ]
!581 = metadata !{null, metadata !550, metadata !175}
!582 = metadata !{i32 786478, i32 0, metadata !529, metadata !"ap_int_base", metadata !"ap_int_base", metadata !"", metadata !154, i32 1466, metadata !583, i1 false, i1 false, i32 0, i32 0, null, i32 384, i1 false, null, null, i32 0, metadata !166, i32 1466} ; [ DW_TAG_subprogram ]
!583 = metadata !{i32 786453, i32 0, metadata !"", i32 0, i32 0, i64 0, i64 0, i64 0, i32 0, null, metadata !584, i32 0, i32 0} ; [ DW_TAG_subroutine_type ]
!584 = metadata !{null, metadata !550, metadata !221}
!585 = metadata !{i32 786478, i32 0, metadata !529, metadata !"ap_int_base", metadata !"ap_int_base", metadata !"", metadata !154, i32 1467, metadata !586, i1 false, i1 false, i32 0, i32 0, null, i32 384, i1 false, null, null, i32 0, metadata !166, i32 1467} ; [ DW_TAG_subprogram ]
!586 = metadata !{i32 786453, i32 0, metadata !"", i32 0, i32 0, i64 0, i64 0, i64 0, i32 0, null, metadata !587, i32 0, i32 0} ; [ DW_TAG_subroutine_type ]
!587 = metadata !{null, metadata !550, metadata !225}
!588 = metadata !{i32 786478, i32 0, metadata !529, metadata !"ap_int_base", metadata !"ap_int_base", metadata !"", metadata !154, i32 1468, metadata !589, i1 false, i1 false, i32 0, i32 0, null, i32 384, i1 false, null, null, i32 0, metadata !166, i32 1468} ; [ DW_TAG_subprogram ]
!589 = metadata !{i32 786453, i32 0, metadata !"", i32 0, i32 0, i64 0, i64 0, i64 0, i32 0, null, metadata !590, i32 0, i32 0} ; [ DW_TAG_subroutine_type ]
!590 = metadata !{null, metadata !550, metadata !229}
!591 = metadata !{i32 786478, i32 0, metadata !529, metadata !"ap_int_base", metadata !"ap_int_base", metadata !"", metadata !154, i32 1469, metadata !592, i1 false, i1 false, i32 0, i32 0, null, i32 384, i1 false, null, null, i32 0, metadata !166, i32 1469} ; [ DW_TAG_subprogram ]
!592 = metadata !{i32 786453, i32 0, metadata !"", i32 0, i32 0, i64 0, i64 0, i64 0, i32 0, null, metadata !593, i32 0, i32 0} ; [ DW_TAG_subroutine_type ]
!593 = metadata !{null, metadata !550, metadata !233}
!594 = metadata !{i32 786478, i32 0, metadata !529, metadata !"ap_int_base", metadata !"ap_int_base", metadata !"", metadata !154, i32 1470, metadata !595, i1 false, i1 false, i32 0, i32 0, null, i32 384, i1 false, null, null, i32 0, metadata !166, i32 1470} ; [ DW_TAG_subprogram ]
!595 = metadata !{i32 786453, i32 0, metadata !"", i32 0, i32 0, i64 0, i64 0, i64 0, i32 0, null, metadata !596, i32 0, i32 0} ; [ DW_TAG_subroutine_type ]
!596 = metadata !{null, metadata !550, metadata !238}
!597 = metadata !{i32 786478, i32 0, metadata !529, metadata !"ap_int_base", metadata !"ap_int_base", metadata !"", metadata !154, i32 1471, metadata !598, i1 false, i1 false, i32 0, i32 0, null, i32 384, i1 false, null, null, i32 0, metadata !166, i32 1471} ; [ DW_TAG_subprogram ]
!598 = metadata !{i32 786453, i32 0, metadata !"", i32 0, i32 0, i64 0, i64 0, i64 0, i32 0, null, metadata !599, i32 0, i32 0} ; [ DW_TAG_subroutine_type ]
!599 = metadata !{null, metadata !550, metadata !243}
!600 = metadata !{i32 786478, i32 0, metadata !529, metadata !"ap_int_base", metadata !"ap_int_base", metadata !"", metadata !154, i32 1472, metadata !601, i1 false, i1 false, i32 0, i32 0, null, i32 384, i1 false, null, null, i32 0, metadata !166, i32 1472} ; [ DW_TAG_subprogram ]
!601 = metadata !{i32 786453, i32 0, metadata !"", i32 0, i32 0, i64 0, i64 0, i64 0, i32 0, null, metadata !602, i32 0, i32 0} ; [ DW_TAG_subroutine_type ]
!602 = metadata !{null, metadata !550, metadata !247}
!603 = metadata !{i32 786478, i32 0, metadata !529, metadata !"ap_int_base", metadata !"ap_int_base", metadata !"", metadata !154, i32 1499, metadata !604, i1 false, i1 false, i32 0, i32 0, null, i32 256, i1 false, null, null, i32 0, metadata !166, i32 1499} ; [ DW_TAG_subprogram ]
!604 = metadata !{i32 786453, i32 0, metadata !"", i32 0, i32 0, i64 0, i64 0, i64 0, i32 0, null, metadata !605, i32 0, i32 0} ; [ DW_TAG_subroutine_type ]
!605 = metadata !{null, metadata !550, metadata !251}
!606 = metadata !{i32 786478, i32 0, metadata !529, metadata !"ap_int_base", metadata !"ap_int_base", metadata !"", metadata !154, i32 1506, metadata !607, i1 false, i1 false, i32 0, i32 0, null, i32 256, i1 false, null, null, i32 0, metadata !166, i32 1506} ; [ DW_TAG_subprogram ]
!607 = metadata !{i32 786453, i32 0, metadata !"", i32 0, i32 0, i64 0, i64 0, i64 0, i32 0, null, metadata !608, i32 0, i32 0} ; [ DW_TAG_subroutine_type ]
!608 = metadata !{null, metadata !550, metadata !251, metadata !202}
!609 = metadata !{i32 786478, i32 0, metadata !529, metadata !"read", metadata !"read", metadata !"_ZNV11ap_int_baseILi14ELb0ELb1EE4readEv", metadata !154, i32 1527, metadata !610, i1 false, i1 false, i32 0, i32 0, null, i32 256, i1 false, null, null, i32 0, metadata !166, i32 1527} ; [ DW_TAG_subprogram ]
!610 = metadata !{i32 786453, i32 0, metadata !"", i32 0, i32 0, i64 0, i64 0, i64 0, i32 0, null, metadata !611, i32 0, i32 0} ; [ DW_TAG_subroutine_type ]
!611 = metadata !{metadata !529, metadata !612}
!612 = metadata !{i32 786447, i32 0, metadata !"", i32 0, i32 0, i64 64, i64 64, i64 0, i32 64, metadata !563} ; [ DW_TAG_pointer_type ]
!613 = metadata !{i32 786478, i32 0, metadata !529, metadata !"write", metadata !"write", metadata !"_ZNV11ap_int_baseILi14ELb0ELb1EE5writeERKS0_", metadata !154, i32 1533, metadata !614, i1 false, i1 false, i32 0, i32 0, null, i32 256, i1 false, null, null, i32 0, metadata !166, i32 1533} ; [ DW_TAG_subprogram ]
!614 = metadata !{i32 786453, i32 0, metadata !"", i32 0, i32 0, i64 0, i64 0, i64 0, i32 0, null, metadata !615, i32 0, i32 0} ; [ DW_TAG_subroutine_type ]
!615 = metadata !{null, metadata !612, metadata !554}
!616 = metadata !{i32 786478, i32 0, metadata !529, metadata !"operator=", metadata !"operator=", metadata !"_ZNV11ap_int_baseILi14ELb0ELb1EEaSERVKS0_", metadata !154, i32 1545, metadata !617, i1 false, i1 false, i32 0, i32 0, null, i32 256, i1 false, null, null, i32 0, metadata !166, i32 1545} ; [ DW_TAG_subprogram ]
!617 = metadata !{i32 786453, i32 0, metadata !"", i32 0, i32 0, i64 0, i64 0, i64 0, i32 0, null, metadata !618, i32 0, i32 0} ; [ DW_TAG_subroutine_type ]
!618 = metadata !{null, metadata !612, metadata !561}
!619 = metadata !{i32 786478, i32 0, metadata !529, metadata !"operator=", metadata !"operator=", metadata !"_ZNV11ap_int_baseILi14ELb0ELb1EEaSERKS0_", metadata !154, i32 1554, metadata !614, i1 false, i1 false, i32 0, i32 0, null, i32 256, i1 false, null, null, i32 0, metadata !166, i32 1554} ; [ DW_TAG_subprogram ]
!620 = metadata !{i32 786478, i32 0, metadata !529, metadata !"operator=", metadata !"operator=", metadata !"_ZN11ap_int_baseILi14ELb0ELb1EEaSERVKS0_", metadata !154, i32 1577, metadata !621, i1 false, i1 false, i32 0, i32 0, null, i32 256, i1 false, null, null, i32 0, metadata !166, i32 1577} ; [ DW_TAG_subprogram ]
!621 = metadata !{i32 786453, i32 0, metadata !"", i32 0, i32 0, i64 0, i64 0, i64 0, i32 0, null, metadata !622, i32 0, i32 0} ; [ DW_TAG_subroutine_type ]
!622 = metadata !{metadata !623, metadata !550, metadata !561}
!623 = metadata !{i32 786448, null, null, null, i32 0, i64 0, i64 0, i64 0, i32 0, metadata !529} ; [ DW_TAG_reference_type ]
!624 = metadata !{i32 786478, i32 0, metadata !529, metadata !"operator=", metadata !"operator=", metadata !"_ZN11ap_int_baseILi14ELb0ELb1EEaSERKS0_", metadata !154, i32 1582, metadata !625, i1 false, i1 false, i32 0, i32 0, null, i32 256, i1 false, null, null, i32 0, metadata !166, i32 1582} ; [ DW_TAG_subprogram ]
!625 = metadata !{i32 786453, i32 0, metadata !"", i32 0, i32 0, i64 0, i64 0, i64 0, i32 0, null, metadata !626, i32 0, i32 0} ; [ DW_TAG_subroutine_type ]
!626 = metadata !{metadata !623, metadata !550, metadata !554}
!627 = metadata !{i32 786478, i32 0, metadata !529, metadata !"operator=", metadata !"operator=", metadata !"_ZN11ap_int_baseILi14ELb0ELb1EEaSEPKc", metadata !154, i32 1586, metadata !628, i1 false, i1 false, i32 0, i32 0, null, i32 256, i1 false, null, null, i32 0, metadata !166, i32 1586} ; [ DW_TAG_subprogram ]
!628 = metadata !{i32 786453, i32 0, metadata !"", i32 0, i32 0, i64 0, i64 0, i64 0, i32 0, null, metadata !629, i32 0, i32 0} ; [ DW_TAG_subroutine_type ]
!629 = metadata !{metadata !623, metadata !550, metadata !251}
!630 = metadata !{i32 786478, i32 0, metadata !529, metadata !"set", metadata !"set", metadata !"_ZN11ap_int_baseILi14ELb0ELb1EE3setEPKca", metadata !154, i32 1594, metadata !631, i1 false, i1 false, i32 0, i32 0, null, i32 256, i1 false, null, null, i32 0, metadata !166, i32 1594} ; [ DW_TAG_subprogram ]
!631 = metadata !{i32 786453, i32 0, metadata !"", i32 0, i32 0, i64 0, i64 0, i64 0, i32 0, null, metadata !632, i32 0, i32 0} ; [ DW_TAG_subroutine_type ]
!632 = metadata !{metadata !623, metadata !550, metadata !251, metadata !202}
!633 = metadata !{i32 786478, i32 0, metadata !529, metadata !"operator=", metadata !"operator=", metadata !"_ZN11ap_int_baseILi14ELb0ELb1EEaSEa", metadata !154, i32 1608, metadata !634, i1 false, i1 false, i32 0, i32 0, null, i32 256, i1 false, null, null, i32 0, metadata !166, i32 1608} ; [ DW_TAG_subprogram ]
!634 = metadata !{i32 786453, i32 0, metadata !"", i32 0, i32 0, i64 0, i64 0, i64 0, i32 0, null, metadata !635, i32 0, i32 0} ; [ DW_TAG_subroutine_type ]
!635 = metadata !{metadata !623, metadata !550, metadata !202}
!636 = metadata !{i32 786478, i32 0, metadata !529, metadata !"operator=", metadata !"operator=", metadata !"_ZN11ap_int_baseILi14ELb0ELb1EEaSEh", metadata !154, i32 1609, metadata !637, i1 false, i1 false, i32 0, i32 0, null, i32 256, i1 false, null, null, i32 0, metadata !166, i32 1609} ; [ DW_TAG_subprogram ]
!637 = metadata !{i32 786453, i32 0, metadata !"", i32 0, i32 0, i64 0, i64 0, i64 0, i32 0, null, metadata !638, i32 0, i32 0} ; [ DW_TAG_subroutine_type ]
!638 = metadata !{metadata !623, metadata !550, metadata !206}
!639 = metadata !{i32 786478, i32 0, metadata !529, metadata !"operator=", metadata !"operator=", metadata !"_ZN11ap_int_baseILi14ELb0ELb1EEaSEs", metadata !154, i32 1610, metadata !640, i1 false, i1 false, i32 0, i32 0, null, i32 256, i1 false, null, null, i32 0, metadata !166, i32 1610} ; [ DW_TAG_subprogram ]
!640 = metadata !{i32 786453, i32 0, metadata !"", i32 0, i32 0, i64 0, i64 0, i64 0, i32 0, null, metadata !641, i32 0, i32 0} ; [ DW_TAG_subroutine_type ]
!641 = metadata !{metadata !623, metadata !550, metadata !210}
!642 = metadata !{i32 786478, i32 0, metadata !529, metadata !"operator=", metadata !"operator=", metadata !"_ZN11ap_int_baseILi14ELb0ELb1EEaSEt", metadata !154, i32 1611, metadata !643, i1 false, i1 false, i32 0, i32 0, null, i32 256, i1 false, null, null, i32 0, metadata !166, i32 1611} ; [ DW_TAG_subprogram ]
!643 = metadata !{i32 786453, i32 0, metadata !"", i32 0, i32 0, i64 0, i64 0, i64 0, i32 0, null, metadata !644, i32 0, i32 0} ; [ DW_TAG_subroutine_type ]
!644 = metadata !{metadata !623, metadata !550, metadata !214}
!645 = metadata !{i32 786478, i32 0, metadata !529, metadata !"operator=", metadata !"operator=", metadata !"_ZN11ap_int_baseILi14ELb0ELb1EEaSEi", metadata !154, i32 1612, metadata !646, i1 false, i1 false, i32 0, i32 0, null, i32 256, i1 false, null, null, i32 0, metadata !166, i32 1612} ; [ DW_TAG_subprogram ]
!646 = metadata !{i32 786453, i32 0, metadata !"", i32 0, i32 0, i64 0, i64 0, i64 0, i32 0, null, metadata !647, i32 0, i32 0} ; [ DW_TAG_subroutine_type ]
!647 = metadata !{metadata !623, metadata !550, metadata !175}
!648 = metadata !{i32 786478, i32 0, metadata !529, metadata !"operator=", metadata !"operator=", metadata !"_ZN11ap_int_baseILi14ELb0ELb1EEaSEj", metadata !154, i32 1613, metadata !649, i1 false, i1 false, i32 0, i32 0, null, i32 256, i1 false, null, null, i32 0, metadata !166, i32 1613} ; [ DW_TAG_subprogram ]
!649 = metadata !{i32 786453, i32 0, metadata !"", i32 0, i32 0, i64 0, i64 0, i64 0, i32 0, null, metadata !650, i32 0, i32 0} ; [ DW_TAG_subroutine_type ]
!650 = metadata !{metadata !623, metadata !550, metadata !221}
!651 = metadata !{i32 786478, i32 0, metadata !529, metadata !"operator=", metadata !"operator=", metadata !"_ZN11ap_int_baseILi14ELb0ELb1EEaSEx", metadata !154, i32 1614, metadata !652, i1 false, i1 false, i32 0, i32 0, null, i32 256, i1 false, null, null, i32 0, metadata !166, i32 1614} ; [ DW_TAG_subprogram ]
!652 = metadata !{i32 786453, i32 0, metadata !"", i32 0, i32 0, i64 0, i64 0, i64 0, i32 0, null, metadata !653, i32 0, i32 0} ; [ DW_TAG_subroutine_type ]
!653 = metadata !{metadata !623, metadata !550, metadata !233}
!654 = metadata !{i32 786478, i32 0, metadata !529, metadata !"operator=", metadata !"operator=", metadata !"_ZN11ap_int_baseILi14ELb0ELb1EEaSEy", metadata !154, i32 1615, metadata !655, i1 false, i1 false, i32 0, i32 0, null, i32 256, i1 false, null, null, i32 0, metadata !166, i32 1615} ; [ DW_TAG_subprogram ]
!655 = metadata !{i32 786453, i32 0, metadata !"", i32 0, i32 0, i64 0, i64 0, i64 0, i32 0, null, metadata !656, i32 0, i32 0} ; [ DW_TAG_subroutine_type ]
!656 = metadata !{metadata !623, metadata !550, metadata !238}
!657 = metadata !{i32 786478, i32 0, metadata !529, metadata !"operator unsigned short", metadata !"operator unsigned short", metadata !"_ZNK11ap_int_baseILi14ELb0ELb1EEcvtEv", metadata !154, i32 1653, metadata !658, i1 false, i1 false, i32 0, i32 0, null, i32 256, i1 false, null, null, i32 0, metadata !166, i32 1653} ; [ DW_TAG_subprogram ]
!658 = metadata !{i32 786453, i32 0, metadata !"", i32 0, i32 0, i64 0, i64 0, i64 0, i32 0, null, metadata !659, i32 0, i32 0} ; [ DW_TAG_subroutine_type ]
!659 = metadata !{metadata !660, metadata !661}
!660 = metadata !{i32 786454, metadata !529, metadata !"RetType", metadata !154, i32 1402, i64 0, i64 0, i64 0, i32 0, metadata !309} ; [ DW_TAG_typedef ]
!661 = metadata !{i32 786447, i32 0, metadata !"", i32 0, i32 0, i64 64, i64 64, i64 0, i32 64, metadata !555} ; [ DW_TAG_pointer_type ]
!662 = metadata !{i32 786478, i32 0, metadata !529, metadata !"to_bool", metadata !"to_bool", metadata !"_ZNK11ap_int_baseILi14ELb0ELb1EE7to_boolEv", metadata !154, i32 1659, metadata !663, i1 false, i1 false, i32 0, i32 0, null, i32 256, i1 false, null, null, i32 0, metadata !166, i32 1659} ; [ DW_TAG_subprogram ]
!663 = metadata !{i32 786453, i32 0, metadata !"", i32 0, i32 0, i64 0, i64 0, i64 0, i32 0, null, metadata !664, i32 0, i32 0} ; [ DW_TAG_subroutine_type ]
!664 = metadata !{metadata !177, metadata !661}
!665 = metadata !{i32 786478, i32 0, metadata !529, metadata !"to_uchar", metadata !"to_uchar", metadata !"_ZNK11ap_int_baseILi14ELb0ELb1EE8to_ucharEv", metadata !154, i32 1660, metadata !666, i1 false, i1 false, i32 0, i32 0, null, i32 256, i1 false, null, null, i32 0, metadata !166, i32 1660} ; [ DW_TAG_subprogram ]
!666 = metadata !{i32 786453, i32 0, metadata !"", i32 0, i32 0, i64 0, i64 0, i64 0, i32 0, null, metadata !667, i32 0, i32 0} ; [ DW_TAG_subroutine_type ]
!667 = metadata !{metadata !206, metadata !661}
!668 = metadata !{i32 786478, i32 0, metadata !529, metadata !"to_char", metadata !"to_char", metadata !"_ZNK11ap_int_baseILi14ELb0ELb1EE7to_charEv", metadata !154, i32 1661, metadata !669, i1 false, i1 false, i32 0, i32 0, null, i32 256, i1 false, null, null, i32 0, metadata !166, i32 1661} ; [ DW_TAG_subprogram ]
!669 = metadata !{i32 786453, i32 0, metadata !"", i32 0, i32 0, i64 0, i64 0, i64 0, i32 0, null, metadata !670, i32 0, i32 0} ; [ DW_TAG_subroutine_type ]
!670 = metadata !{metadata !202, metadata !661}
!671 = metadata !{i32 786478, i32 0, metadata !529, metadata !"to_ushort", metadata !"to_ushort", metadata !"_ZNK11ap_int_baseILi14ELb0ELb1EE9to_ushortEv", metadata !154, i32 1662, metadata !672, i1 false, i1 false, i32 0, i32 0, null, i32 256, i1 false, null, null, i32 0, metadata !166, i32 1662} ; [ DW_TAG_subprogram ]
!672 = metadata !{i32 786453, i32 0, metadata !"", i32 0, i32 0, i64 0, i64 0, i64 0, i32 0, null, metadata !673, i32 0, i32 0} ; [ DW_TAG_subroutine_type ]
!673 = metadata !{metadata !214, metadata !661}
!674 = metadata !{i32 786478, i32 0, metadata !529, metadata !"to_short", metadata !"to_short", metadata !"_ZNK11ap_int_baseILi14ELb0ELb1EE8to_shortEv", metadata !154, i32 1663, metadata !675, i1 false, i1 false, i32 0, i32 0, null, i32 256, i1 false, null, null, i32 0, metadata !166, i32 1663} ; [ DW_TAG_subprogram ]
!675 = metadata !{i32 786453, i32 0, metadata !"", i32 0, i32 0, i64 0, i64 0, i64 0, i32 0, null, metadata !676, i32 0, i32 0} ; [ DW_TAG_subroutine_type ]
!676 = metadata !{metadata !210, metadata !661}
!677 = metadata !{i32 786478, i32 0, metadata !529, metadata !"to_int", metadata !"to_int", metadata !"_ZNK11ap_int_baseILi14ELb0ELb1EE6to_intEv", metadata !154, i32 1664, metadata !678, i1 false, i1 false, i32 0, i32 0, null, i32 256, i1 false, null, null, i32 0, metadata !166, i32 1664} ; [ DW_TAG_subprogram ]
!678 = metadata !{i32 786453, i32 0, metadata !"", i32 0, i32 0, i64 0, i64 0, i64 0, i32 0, null, metadata !679, i32 0, i32 0} ; [ DW_TAG_subroutine_type ]
!679 = metadata !{metadata !175, metadata !661}
!680 = metadata !{i32 786478, i32 0, metadata !529, metadata !"to_uint", metadata !"to_uint", metadata !"_ZNK11ap_int_baseILi14ELb0ELb1EE7to_uintEv", metadata !154, i32 1665, metadata !681, i1 false, i1 false, i32 0, i32 0, null, i32 256, i1 false, null, null, i32 0, metadata !166, i32 1665} ; [ DW_TAG_subprogram ]
!681 = metadata !{i32 786453, i32 0, metadata !"", i32 0, i32 0, i64 0, i64 0, i64 0, i32 0, null, metadata !682, i32 0, i32 0} ; [ DW_TAG_subroutine_type ]
!682 = metadata !{metadata !221, metadata !661}
!683 = metadata !{i32 786478, i32 0, metadata !529, metadata !"to_long", metadata !"to_long", metadata !"_ZNK11ap_int_baseILi14ELb0ELb1EE7to_longEv", metadata !154, i32 1666, metadata !684, i1 false, i1 false, i32 0, i32 0, null, i32 256, i1 false, null, null, i32 0, metadata !166, i32 1666} ; [ DW_TAG_subprogram ]
!684 = metadata !{i32 786453, i32 0, metadata !"", i32 0, i32 0, i64 0, i64 0, i64 0, i32 0, null, metadata !685, i32 0, i32 0} ; [ DW_TAG_subroutine_type ]
!685 = metadata !{metadata !225, metadata !661}
!686 = metadata !{i32 786478, i32 0, metadata !529, metadata !"to_ulong", metadata !"to_ulong", metadata !"_ZNK11ap_int_baseILi14ELb0ELb1EE8to_ulongEv", metadata !154, i32 1667, metadata !687, i1 false, i1 false, i32 0, i32 0, null, i32 256, i1 false, null, null, i32 0, metadata !166, i32 1667} ; [ DW_TAG_subprogram ]
!687 = metadata !{i32 786453, i32 0, metadata !"", i32 0, i32 0, i64 0, i64 0, i64 0, i32 0, null, metadata !688, i32 0, i32 0} ; [ DW_TAG_subroutine_type ]
!688 = metadata !{metadata !229, metadata !661}
!689 = metadata !{i32 786478, i32 0, metadata !529, metadata !"to_int64", metadata !"to_int64", metadata !"_ZNK11ap_int_baseILi14ELb0ELb1EE8to_int64Ev", metadata !154, i32 1668, metadata !690, i1 false, i1 false, i32 0, i32 0, null, i32 256, i1 false, null, null, i32 0, metadata !166, i32 1668} ; [ DW_TAG_subprogram ]
!690 = metadata !{i32 786453, i32 0, metadata !"", i32 0, i32 0, i64 0, i64 0, i64 0, i32 0, null, metadata !691, i32 0, i32 0} ; [ DW_TAG_subroutine_type ]
!691 = metadata !{metadata !233, metadata !661}
!692 = metadata !{i32 786478, i32 0, metadata !529, metadata !"to_uint64", metadata !"to_uint64", metadata !"_ZNK11ap_int_baseILi14ELb0ELb1EE9to_uint64Ev", metadata !154, i32 1669, metadata !693, i1 false, i1 false, i32 0, i32 0, null, i32 256, i1 false, null, null, i32 0, metadata !166, i32 1669} ; [ DW_TAG_subprogram ]
!693 = metadata !{i32 786453, i32 0, metadata !"", i32 0, i32 0, i64 0, i64 0, i64 0, i32 0, null, metadata !694, i32 0, i32 0} ; [ DW_TAG_subroutine_type ]
!694 = metadata !{metadata !238, metadata !661}
!695 = metadata !{i32 786478, i32 0, metadata !529, metadata !"to_double", metadata !"to_double", metadata !"_ZNK11ap_int_baseILi14ELb0ELb1EE9to_doubleEv", metadata !154, i32 1670, metadata !696, i1 false, i1 false, i32 0, i32 0, null, i32 256, i1 false, null, null, i32 0, metadata !166, i32 1670} ; [ DW_TAG_subprogram ]
!696 = metadata !{i32 786453, i32 0, metadata !"", i32 0, i32 0, i64 0, i64 0, i64 0, i32 0, null, metadata !697, i32 0, i32 0} ; [ DW_TAG_subroutine_type ]
!697 = metadata !{metadata !247, metadata !661}
!698 = metadata !{i32 786478, i32 0, metadata !529, metadata !"length", metadata !"length", metadata !"_ZNK11ap_int_baseILi14ELb0ELb1EE6lengthEv", metadata !154, i32 1684, metadata !678, i1 false, i1 false, i32 0, i32 0, null, i32 256, i1 false, null, null, i32 0, metadata !166, i32 1684} ; [ DW_TAG_subprogram ]
!699 = metadata !{i32 786478, i32 0, metadata !529, metadata !"length", metadata !"length", metadata !"_ZNVK11ap_int_baseILi14ELb0ELb1EE6lengthEv", metadata !154, i32 1685, metadata !700, i1 false, i1 false, i32 0, i32 0, null, i32 256, i1 false, null, null, i32 0, metadata !166, i32 1685} ; [ DW_TAG_subprogram ]
!700 = metadata !{i32 786453, i32 0, metadata !"", i32 0, i32 0, i64 0, i64 0, i64 0, i32 0, null, metadata !701, i32 0, i32 0} ; [ DW_TAG_subroutine_type ]
!701 = metadata !{metadata !175, metadata !702}
!702 = metadata !{i32 786447, i32 0, metadata !"", i32 0, i32 0, i64 64, i64 64, i64 0, i32 64, metadata !562} ; [ DW_TAG_pointer_type ]
!703 = metadata !{i32 786478, i32 0, metadata !529, metadata !"reverse", metadata !"reverse", metadata !"_ZN11ap_int_baseILi14ELb0ELb1EE7reverseEv", metadata !154, i32 1690, metadata !704, i1 false, i1 false, i32 0, i32 0, null, i32 256, i1 false, null, null, i32 0, metadata !166, i32 1690} ; [ DW_TAG_subprogram ]
!704 = metadata !{i32 786453, i32 0, metadata !"", i32 0, i32 0, i64 0, i64 0, i64 0, i32 0, null, metadata !705, i32 0, i32 0} ; [ DW_TAG_subroutine_type ]
!705 = metadata !{metadata !623, metadata !550}
!706 = metadata !{i32 786478, i32 0, metadata !529, metadata !"iszero", metadata !"iszero", metadata !"_ZNK11ap_int_baseILi14ELb0ELb1EE6iszeroEv", metadata !154, i32 1696, metadata !663, i1 false, i1 false, i32 0, i32 0, null, i32 256, i1 false, null, null, i32 0, metadata !166, i32 1696} ; [ DW_TAG_subprogram ]
!707 = metadata !{i32 786478, i32 0, metadata !529, metadata !"is_zero", metadata !"is_zero", metadata !"_ZNK11ap_int_baseILi14ELb0ELb1EE7is_zeroEv", metadata !154, i32 1701, metadata !663, i1 false, i1 false, i32 0, i32 0, null, i32 256, i1 false, null, null, i32 0, metadata !166, i32 1701} ; [ DW_TAG_subprogram ]
!708 = metadata !{i32 786478, i32 0, metadata !529, metadata !"sign", metadata !"sign", metadata !"_ZNK11ap_int_baseILi14ELb0ELb1EE4signEv", metadata !154, i32 1706, metadata !663, i1 false, i1 false, i32 0, i32 0, null, i32 256, i1 false, null, null, i32 0, metadata !166, i32 1706} ; [ DW_TAG_subprogram ]
!709 = metadata !{i32 786478, i32 0, metadata !529, metadata !"clear", metadata !"clear", metadata !"_ZN11ap_int_baseILi14ELb0ELb1EE5clearEi", metadata !154, i32 1714, metadata !580, i1 false, i1 false, i32 0, i32 0, null, i32 256, i1 false, null, null, i32 0, metadata !166, i32 1714} ; [ DW_TAG_subprogram ]
!710 = metadata !{i32 786478, i32 0, metadata !529, metadata !"invert", metadata !"invert", metadata !"_ZN11ap_int_baseILi14ELb0ELb1EE6invertEi", metadata !154, i32 1720, metadata !580, i1 false, i1 false, i32 0, i32 0, null, i32 256, i1 false, null, null, i32 0, metadata !166, i32 1720} ; [ DW_TAG_subprogram ]
!711 = metadata !{i32 786478, i32 0, metadata !529, metadata !"test", metadata !"test", metadata !"_ZNK11ap_int_baseILi14ELb0ELb1EE4testEi", metadata !154, i32 1728, metadata !712, i1 false, i1 false, i32 0, i32 0, null, i32 256, i1 false, null, null, i32 0, metadata !166, i32 1728} ; [ DW_TAG_subprogram ]
!712 = metadata !{i32 786453, i32 0, metadata !"", i32 0, i32 0, i64 0, i64 0, i64 0, i32 0, null, metadata !713, i32 0, i32 0} ; [ DW_TAG_subroutine_type ]
!713 = metadata !{metadata !177, metadata !661, metadata !175}
!714 = metadata !{i32 786478, i32 0, metadata !529, metadata !"set", metadata !"set", metadata !"_ZN11ap_int_baseILi14ELb0ELb1EE3setEi", metadata !154, i32 1734, metadata !580, i1 false, i1 false, i32 0, i32 0, null, i32 256, i1 false, null, null, i32 0, metadata !166, i32 1734} ; [ DW_TAG_subprogram ]
!715 = metadata !{i32 786478, i32 0, metadata !529, metadata !"set", metadata !"set", metadata !"_ZN11ap_int_baseILi14ELb0ELb1EE3setEib", metadata !154, i32 1740, metadata !716, i1 false, i1 false, i32 0, i32 0, null, i32 256, i1 false, null, null, i32 0, metadata !166, i32 1740} ; [ DW_TAG_subprogram ]
!716 = metadata !{i32 786453, i32 0, metadata !"", i32 0, i32 0, i64 0, i64 0, i64 0, i32 0, null, metadata !717, i32 0, i32 0} ; [ DW_TAG_subroutine_type ]
!717 = metadata !{null, metadata !550, metadata !175, metadata !177}
!718 = metadata !{i32 786478, i32 0, metadata !529, metadata !"lrotate", metadata !"lrotate", metadata !"_ZN11ap_int_baseILi14ELb0ELb1EE7lrotateEi", metadata !154, i32 1747, metadata !580, i1 false, i1 false, i32 0, i32 0, null, i32 256, i1 false, null, null, i32 0, metadata !166, i32 1747} ; [ DW_TAG_subprogram ]
!719 = metadata !{i32 786478, i32 0, metadata !529, metadata !"rrotate", metadata !"rrotate", metadata !"_ZN11ap_int_baseILi14ELb0ELb1EE7rrotateEi", metadata !154, i32 1756, metadata !580, i1 false, i1 false, i32 0, i32 0, null, i32 256, i1 false, null, null, i32 0, metadata !166, i32 1756} ; [ DW_TAG_subprogram ]
!720 = metadata !{i32 786478, i32 0, metadata !529, metadata !"set_bit", metadata !"set_bit", metadata !"_ZN11ap_int_baseILi14ELb0ELb1EE7set_bitEib", metadata !154, i32 1764, metadata !716, i1 false, i1 false, i32 0, i32 0, null, i32 256, i1 false, null, null, i32 0, metadata !166, i32 1764} ; [ DW_TAG_subprogram ]
!721 = metadata !{i32 786478, i32 0, metadata !529, metadata !"get_bit", metadata !"get_bit", metadata !"_ZNK11ap_int_baseILi14ELb0ELb1EE7get_bitEi", metadata !154, i32 1769, metadata !712, i1 false, i1 false, i32 0, i32 0, null, i32 256, i1 false, null, null, i32 0, metadata !166, i32 1769} ; [ DW_TAG_subprogram ]
!722 = metadata !{i32 786478, i32 0, metadata !529, metadata !"b_not", metadata !"b_not", metadata !"_ZN11ap_int_baseILi14ELb0ELb1EE5b_notEv", metadata !154, i32 1774, metadata !548, i1 false, i1 false, i32 0, i32 0, null, i32 256, i1 false, null, null, i32 0, metadata !166, i32 1774} ; [ DW_TAG_subprogram ]
!723 = metadata !{i32 786478, i32 0, metadata !529, metadata !"countLeadingZeros", metadata !"countLeadingZeros", metadata !"_ZN11ap_int_baseILi14ELb0ELb1EE17countLeadingZerosEv", metadata !154, i32 1781, metadata !724, i1 false, i1 false, i32 0, i32 0, null, i32 256, i1 false, null, null, i32 0, metadata !166, i32 1781} ; [ DW_TAG_subprogram ]
!724 = metadata !{i32 786453, i32 0, metadata !"", i32 0, i32 0, i64 0, i64 0, i64 0, i32 0, null, metadata !725, i32 0, i32 0} ; [ DW_TAG_subroutine_type ]
!725 = metadata !{metadata !175, metadata !550}
!726 = metadata !{i32 786478, i32 0, metadata !529, metadata !"operator++", metadata !"operator++", metadata !"_ZN11ap_int_baseILi14ELb0ELb1EEppEv", metadata !154, i32 1838, metadata !704, i1 false, i1 false, i32 0, i32 0, null, i32 256, i1 false, null, null, i32 0, metadata !166, i32 1838} ; [ DW_TAG_subprogram ]
!727 = metadata !{i32 786478, i32 0, metadata !529, metadata !"operator--", metadata !"operator--", metadata !"_ZN11ap_int_baseILi14ELb0ELb1EEmmEv", metadata !154, i32 1842, metadata !704, i1 false, i1 false, i32 0, i32 0, null, i32 256, i1 false, null, null, i32 0, metadata !166, i32 1842} ; [ DW_TAG_subprogram ]
!728 = metadata !{i32 786478, i32 0, metadata !529, metadata !"operator++", metadata !"operator++", metadata !"_ZN11ap_int_baseILi14ELb0ELb1EEppEi", metadata !154, i32 1850, metadata !729, i1 false, i1 false, i32 0, i32 0, null, i32 256, i1 false, null, null, i32 0, metadata !166, i32 1850} ; [ DW_TAG_subprogram ]
!729 = metadata !{i32 786453, i32 0, metadata !"", i32 0, i32 0, i64 0, i64 0, i64 0, i32 0, null, metadata !730, i32 0, i32 0} ; [ DW_TAG_subroutine_type ]
!730 = metadata !{metadata !555, metadata !550, metadata !175}
!731 = metadata !{i32 786478, i32 0, metadata !529, metadata !"operator--", metadata !"operator--", metadata !"_ZN11ap_int_baseILi14ELb0ELb1EEmmEi", metadata !154, i32 1855, metadata !729, i1 false, i1 false, i32 0, i32 0, null, i32 256, i1 false, null, null, i32 0, metadata !166, i32 1855} ; [ DW_TAG_subprogram ]
!732 = metadata !{i32 786478, i32 0, metadata !529, metadata !"operator+", metadata !"operator+", metadata !"_ZNK11ap_int_baseILi14ELb0ELb1EEpsEv", metadata !154, i32 1864, metadata !733, i1 false, i1 false, i32 0, i32 0, null, i32 256, i1 false, null, null, i32 0, metadata !166, i32 1864} ; [ DW_TAG_subprogram ]
!733 = metadata !{i32 786453, i32 0, metadata !"", i32 0, i32 0, i64 0, i64 0, i64 0, i32 0, null, metadata !734, i32 0, i32 0} ; [ DW_TAG_subroutine_type ]
!734 = metadata !{metadata !529, metadata !661}
!735 = metadata !{i32 786478, i32 0, metadata !529, metadata !"operator!", metadata !"operator!", metadata !"_ZNK11ap_int_baseILi14ELb0ELb1EEntEv", metadata !154, i32 1870, metadata !663, i1 false, i1 false, i32 0, i32 0, null, i32 256, i1 false, null, null, i32 0, metadata !166, i32 1870} ; [ DW_TAG_subprogram ]
!736 = metadata !{i32 786478, i32 0, metadata !529, metadata !"operator-", metadata !"operator-", metadata !"_ZNK11ap_int_baseILi14ELb0ELb1EEngEv", metadata !154, i32 1875, metadata !737, i1 false, i1 false, i32 0, i32 0, null, i32 256, i1 false, null, null, i32 0, metadata !166, i32 1875} ; [ DW_TAG_subprogram ]
!737 = metadata !{i32 786453, i32 0, metadata !"", i32 0, i32 0, i64 0, i64 0, i64 0, i32 0, null, metadata !738, i32 0, i32 0} ; [ DW_TAG_subroutine_type ]
!738 = metadata !{metadata !739, metadata !661}
!739 = metadata !{i32 786434, null, metadata !"ap_int_base<15, true, true>", metadata !154, i32 650, i32 0, i32 0, i32 0, i32 4, null, null, i32 0} ; [ DW_TAG_class_type ]
!740 = metadata !{i32 786478, i32 0, metadata !529, metadata !"range", metadata !"range", metadata !"_ZN11ap_int_baseILi14ELb0ELb1EE5rangeEii", metadata !154, i32 2005, metadata !741, i1 false, i1 false, i32 0, i32 0, null, i32 256, i1 false, null, null, i32 0, metadata !166, i32 2005} ; [ DW_TAG_subprogram ]
!741 = metadata !{i32 786453, i32 0, metadata !"", i32 0, i32 0, i64 0, i64 0, i64 0, i32 0, null, metadata !742, i32 0, i32 0} ; [ DW_TAG_subroutine_type ]
!742 = metadata !{metadata !743, metadata !550, metadata !175, metadata !175}
!743 = metadata !{i32 786434, null, metadata !"ap_range_ref<14, false>", metadata !154, i32 923, i32 0, i32 0, i32 0, i32 4, null, null, i32 0} ; [ DW_TAG_class_type ]
!744 = metadata !{i32 786478, i32 0, metadata !529, metadata !"operator()", metadata !"operator()", metadata !"_ZN11ap_int_baseILi14ELb0ELb1EEclEii", metadata !154, i32 2011, metadata !741, i1 false, i1 false, i32 0, i32 0, null, i32 256, i1 false, null, null, i32 0, metadata !166, i32 2011} ; [ DW_TAG_subprogram ]
!745 = metadata !{i32 786478, i32 0, metadata !529, metadata !"range", metadata !"range", metadata !"_ZNK11ap_int_baseILi14ELb0ELb1EE5rangeEii", metadata !154, i32 2017, metadata !746, i1 false, i1 false, i32 0, i32 0, null, i32 256, i1 false, null, null, i32 0, metadata !166, i32 2017} ; [ DW_TAG_subprogram ]
!746 = metadata !{i32 786453, i32 0, metadata !"", i32 0, i32 0, i64 0, i64 0, i64 0, i32 0, null, metadata !747, i32 0, i32 0} ; [ DW_TAG_subroutine_type ]
!747 = metadata !{metadata !743, metadata !661, metadata !175, metadata !175}
!748 = metadata !{i32 786478, i32 0, metadata !529, metadata !"operator()", metadata !"operator()", metadata !"_ZNK11ap_int_baseILi14ELb0ELb1EEclEii", metadata !154, i32 2023, metadata !746, i1 false, i1 false, i32 0, i32 0, null, i32 256, i1 false, null, null, i32 0, metadata !166, i32 2023} ; [ DW_TAG_subprogram ]
!749 = metadata !{i32 786478, i32 0, metadata !529, metadata !"operator[]", metadata !"operator[]", metadata !"_ZN11ap_int_baseILi14ELb0ELb1EEixEi", metadata !154, i32 2042, metadata !750, i1 false, i1 false, i32 0, i32 0, null, i32 256, i1 false, null, null, i32 0, metadata !166, i32 2042} ; [ DW_TAG_subprogram ]
!750 = metadata !{i32 786453, i32 0, metadata !"", i32 0, i32 0, i64 0, i64 0, i64 0, i32 0, null, metadata !751, i32 0, i32 0} ; [ DW_TAG_subroutine_type ]
!751 = metadata !{metadata !752, metadata !550, metadata !175}
!752 = metadata !{i32 786434, null, metadata !"ap_bit_ref<14, false>", metadata !154, i32 1193, i32 0, i32 0, i32 0, i32 4, null, null, i32 0} ; [ DW_TAG_class_type ]
!753 = metadata !{i32 786478, i32 0, metadata !529, metadata !"operator[]", metadata !"operator[]", metadata !"_ZNK11ap_int_baseILi14ELb0ELb1EEixEi", metadata !154, i32 2056, metadata !712, i1 false, i1 false, i32 0, i32 0, null, i32 256, i1 false, null, null, i32 0, metadata !166, i32 2056} ; [ DW_TAG_subprogram ]
!754 = metadata !{i32 786478, i32 0, metadata !529, metadata !"bit", metadata !"bit", metadata !"_ZN11ap_int_baseILi14ELb0ELb1EE3bitEi", metadata !154, i32 2070, metadata !750, i1 false, i1 false, i32 0, i32 0, null, i32 256, i1 false, null, null, i32 0, metadata !166, i32 2070} ; [ DW_TAG_subprogram ]
!755 = metadata !{i32 786478, i32 0, metadata !529, metadata !"bit", metadata !"bit", metadata !"_ZNK11ap_int_baseILi14ELb0ELb1EE3bitEi", metadata !154, i32 2084, metadata !712, i1 false, i1 false, i32 0, i32 0, null, i32 256, i1 false, null, null, i32 0, metadata !166, i32 2084} ; [ DW_TAG_subprogram ]
!756 = metadata !{i32 786478, i32 0, metadata !529, metadata !"and_reduce", metadata !"and_reduce", metadata !"_ZN11ap_int_baseILi14ELb0ELb1EE10and_reduceEv", metadata !154, i32 2264, metadata !757, i1 false, i1 false, i32 0, i32 0, null, i32 256, i1 false, null, null, i32 0, metadata !166, i32 2264} ; [ DW_TAG_subprogram ]
!757 = metadata !{i32 786453, i32 0, metadata !"", i32 0, i32 0, i64 0, i64 0, i64 0, i32 0, null, metadata !758, i32 0, i32 0} ; [ DW_TAG_subroutine_type ]
!758 = metadata !{metadata !177, metadata !550}
!759 = metadata !{i32 786478, i32 0, metadata !529, metadata !"nand_reduce", metadata !"nand_reduce", metadata !"_ZN11ap_int_baseILi14ELb0ELb1EE11nand_reduceEv", metadata !154, i32 2267, metadata !757, i1 false, i1 false, i32 0, i32 0, null, i32 256, i1 false, null, null, i32 0, metadata !166, i32 2267} ; [ DW_TAG_subprogram ]
!760 = metadata !{i32 786478, i32 0, metadata !529, metadata !"or_reduce", metadata !"or_reduce", metadata !"_ZN11ap_int_baseILi14ELb0ELb1EE9or_reduceEv", metadata !154, i32 2270, metadata !757, i1 false, i1 false, i32 0, i32 0, null, i32 256, i1 false, null, null, i32 0, metadata !166, i32 2270} ; [ DW_TAG_subprogram ]
!761 = metadata !{i32 786478, i32 0, metadata !529, metadata !"nor_reduce", metadata !"nor_reduce", metadata !"_ZN11ap_int_baseILi14ELb0ELb1EE10nor_reduceEv", metadata !154, i32 2273, metadata !757, i1 false, i1 false, i32 0, i32 0, null, i32 256, i1 false, null, null, i32 0, metadata !166, i32 2273} ; [ DW_TAG_subprogram ]
!762 = metadata !{i32 786478, i32 0, metadata !529, metadata !"xor_reduce", metadata !"xor_reduce", metadata !"_ZN11ap_int_baseILi14ELb0ELb1EE10xor_reduceEv", metadata !154, i32 2276, metadata !757, i1 false, i1 false, i32 0, i32 0, null, i32 256, i1 false, null, null, i32 0, metadata !166, i32 2276} ; [ DW_TAG_subprogram ]
!763 = metadata !{i32 786478, i32 0, metadata !529, metadata !"xnor_reduce", metadata !"xnor_reduce", metadata !"_ZN11ap_int_baseILi14ELb0ELb1EE11xnor_reduceEv", metadata !154, i32 2279, metadata !757, i1 false, i1 false, i32 0, i32 0, null, i32 256, i1 false, null, null, i32 0, metadata !166, i32 2279} ; [ DW_TAG_subprogram ]
!764 = metadata !{i32 786478, i32 0, metadata !529, metadata !"and_reduce", metadata !"and_reduce", metadata !"_ZNK11ap_int_baseILi14ELb0ELb1EE10and_reduceEv", metadata !154, i32 2283, metadata !663, i1 false, i1 false, i32 0, i32 0, null, i32 256, i1 false, null, null, i32 0, metadata !166, i32 2283} ; [ DW_TAG_subprogram ]
!765 = metadata !{i32 786478, i32 0, metadata !529, metadata !"nand_reduce", metadata !"nand_reduce", metadata !"_ZNK11ap_int_baseILi14ELb0ELb1EE11nand_reduceEv", metadata !154, i32 2286, metadata !663, i1 false, i1 false, i32 0, i32 0, null, i32 256, i1 false, null, null, i32 0, metadata !166, i32 2286} ; [ DW_TAG_subprogram ]
!766 = metadata !{i32 786478, i32 0, metadata !529, metadata !"or_reduce", metadata !"or_reduce", metadata !"_ZNK11ap_int_baseILi14ELb0ELb1EE9or_reduceEv", metadata !154, i32 2289, metadata !663, i1 false, i1 false, i32 0, i32 0, null, i32 256, i1 false, null, null, i32 0, metadata !166, i32 2289} ; [ DW_TAG_subprogram ]
!767 = metadata !{i32 786478, i32 0, metadata !529, metadata !"nor_reduce", metadata !"nor_reduce", metadata !"_ZNK11ap_int_baseILi14ELb0ELb1EE10nor_reduceEv", metadata !154, i32 2292, metadata !663, i1 false, i1 false, i32 0, i32 0, null, i32 256, i1 false, null, null, i32 0, metadata !166, i32 2292} ; [ DW_TAG_subprogram ]
!768 = metadata !{i32 786478, i32 0, metadata !529, metadata !"xor_reduce", metadata !"xor_reduce", metadata !"_ZNK11ap_int_baseILi14ELb0ELb1EE10xor_reduceEv", metadata !154, i32 2295, metadata !663, i1 false, i1 false, i32 0, i32 0, null, i32 256, i1 false, null, null, i32 0, metadata !166, i32 2295} ; [ DW_TAG_subprogram ]
!769 = metadata !{i32 786478, i32 0, metadata !529, metadata !"xnor_reduce", metadata !"xnor_reduce", metadata !"_ZNK11ap_int_baseILi14ELb0ELb1EE11xnor_reduceEv", metadata !154, i32 2298, metadata !663, i1 false, i1 false, i32 0, i32 0, null, i32 256, i1 false, null, null, i32 0, metadata !166, i32 2298} ; [ DW_TAG_subprogram ]
!770 = metadata !{i32 786478, i32 0, metadata !529, metadata !"to_string", metadata !"to_string", metadata !"_ZNK11ap_int_baseILi14ELb0ELb1EE9to_stringEPci8BaseModeb", metadata !154, i32 2305, metadata !771, i1 false, i1 false, i32 0, i32 0, null, i32 256, i1 false, null, null, i32 0, metadata !166, i32 2305} ; [ DW_TAG_subprogram ]
!771 = metadata !{i32 786453, i32 0, metadata !"", i32 0, i32 0, i64 0, i64 0, i64 0, i32 0, null, metadata !772, i32 0, i32 0} ; [ DW_TAG_subroutine_type ]
!772 = metadata !{null, metadata !661, metadata !426, metadata !175, metadata !427, metadata !177}
!773 = metadata !{i32 786478, i32 0, metadata !529, metadata !"to_string", metadata !"to_string", metadata !"_ZNK11ap_int_baseILi14ELb0ELb1EE9to_stringE8BaseModeb", metadata !154, i32 2332, metadata !774, i1 false, i1 false, i32 0, i32 0, null, i32 256, i1 false, null, null, i32 0, metadata !166, i32 2332} ; [ DW_TAG_subprogram ]
!774 = metadata !{i32 786453, i32 0, metadata !"", i32 0, i32 0, i64 0, i64 0, i64 0, i32 0, null, metadata !775, i32 0, i32 0} ; [ DW_TAG_subroutine_type ]
!775 = metadata !{metadata !426, metadata !661, metadata !427, metadata !177}
!776 = metadata !{i32 786478, i32 0, metadata !529, metadata !"to_string", metadata !"to_string", metadata !"_ZNK11ap_int_baseILi14ELb0ELb1EE9to_stringEab", metadata !154, i32 2336, metadata !777, i1 false, i1 false, i32 0, i32 0, null, i32 256, i1 false, null, null, i32 0, metadata !166, i32 2336} ; [ DW_TAG_subprogram ]
!777 = metadata !{i32 786453, i32 0, metadata !"", i32 0, i32 0, i64 0, i64 0, i64 0, i32 0, null, metadata !778, i32 0, i32 0} ; [ DW_TAG_subroutine_type ]
!778 = metadata !{metadata !426, metadata !661, metadata !202, metadata !177}
!779 = metadata !{i32 786478, i32 0, metadata !529, metadata !"ap_int_base", metadata !"ap_int_base", metadata !"", metadata !154, i32 1397, metadata !552, i1 false, i1 false, i32 0, i32 0, null, i32 320, i1 false, null, null, i32 0, metadata !166, i32 1397} ; [ DW_TAG_subprogram ]
!780 = metadata !{metadata !781, metadata !176, metadata !442}
!781 = metadata !{i32 786480, null, metadata !"_AP_W", metadata !175, i64 14, null, i32 0, i32 0} ; [ DW_TAG_template_value_parameter ]
!782 = metadata !{i32 786478, i32 0, metadata !526, metadata !"ap_uint", metadata !"ap_uint", metadata !"", metadata !150, i32 183, metadata !783, i1 false, i1 false, i32 0, i32 0, null, i32 256, i1 false, null, null, i32 0, metadata !166, i32 183} ; [ DW_TAG_subprogram ]
!783 = metadata !{i32 786453, i32 0, metadata !"", i32 0, i32 0, i64 0, i64 0, i64 0, i32 0, null, metadata !784, i32 0, i32 0} ; [ DW_TAG_subroutine_type ]
!784 = metadata !{null, metadata !785}
!785 = metadata !{i32 786447, i32 0, metadata !"", i32 0, i32 0, i64 64, i64 64, i64 0, i32 64, metadata !526} ; [ DW_TAG_pointer_type ]
!786 = metadata !{i32 786478, i32 0, metadata !526, metadata !"ap_uint<14>", metadata !"ap_uint<14>", metadata !"", metadata !150, i32 185, metadata !787, i1 false, i1 false, i32 0, i32 0, null, i32 256, i1 false, null, metadata !791, i32 0, metadata !166, i32 185} ; [ DW_TAG_subprogram ]
!787 = metadata !{i32 786453, i32 0, metadata !"", i32 0, i32 0, i64 0, i64 0, i64 0, i32 0, null, metadata !788, i32 0, i32 0} ; [ DW_TAG_subroutine_type ]
!788 = metadata !{null, metadata !785, metadata !789}
!789 = metadata !{i32 786448, null, null, null, i32 0, i64 0, i64 0, i64 0, i32 0, metadata !790} ; [ DW_TAG_reference_type ]
!790 = metadata !{i32 786470, null, metadata !"", null, i32 0, i64 0, i64 0, i64 0, i32 0, metadata !526} ; [ DW_TAG_const_type ]
!791 = metadata !{metadata !557}
!792 = metadata !{i32 786478, i32 0, metadata !526, metadata !"ap_uint<14>", metadata !"ap_uint<14>", metadata !"", metadata !150, i32 191, metadata !793, i1 false, i1 false, i32 0, i32 0, null, i32 256, i1 false, null, metadata !791, i32 0, metadata !166, i32 191} ; [ DW_TAG_subprogram ]
!793 = metadata !{i32 786453, i32 0, metadata !"", i32 0, i32 0, i64 0, i64 0, i64 0, i32 0, null, metadata !794, i32 0, i32 0} ; [ DW_TAG_subroutine_type ]
!794 = metadata !{null, metadata !785, metadata !795}
!795 = metadata !{i32 786448, null, null, null, i32 0, i64 0, i64 0, i64 0, i32 0, metadata !796} ; [ DW_TAG_reference_type ]
!796 = metadata !{i32 786470, null, metadata !"", null, i32 0, i64 0, i64 0, i64 0, i32 0, metadata !797} ; [ DW_TAG_const_type ]
!797 = metadata !{i32 786485, null, metadata !"", null, i32 0, i64 0, i64 0, i64 0, i32 0, metadata !526} ; [ DW_TAG_volatile_type ]
!798 = metadata !{i32 786478, i32 0, metadata !526, metadata !"ap_uint<14, false>", metadata !"ap_uint<14, false>", metadata !"", metadata !150, i32 226, metadata !799, i1 false, i1 false, i32 0, i32 0, null, i32 256, i1 false, null, metadata !556, i32 0, metadata !166, i32 226} ; [ DW_TAG_subprogram ]
!799 = metadata !{i32 786453, i32 0, metadata !"", i32 0, i32 0, i64 0, i64 0, i64 0, i32 0, null, metadata !800, i32 0, i32 0} ; [ DW_TAG_subroutine_type ]
!800 = metadata !{null, metadata !785, metadata !554}
!801 = metadata !{i32 786478, i32 0, metadata !526, metadata !"ap_uint", metadata !"ap_uint", metadata !"", metadata !150, i32 245, metadata !802, i1 false, i1 false, i32 0, i32 0, null, i32 256, i1 false, null, null, i32 0, metadata !166, i32 245} ; [ DW_TAG_subprogram ]
!802 = metadata !{i32 786453, i32 0, metadata !"", i32 0, i32 0, i64 0, i64 0, i64 0, i32 0, null, metadata !803, i32 0, i32 0} ; [ DW_TAG_subroutine_type ]
!803 = metadata !{null, metadata !785, metadata !177}
!804 = metadata !{i32 786478, i32 0, metadata !526, metadata !"ap_uint", metadata !"ap_uint", metadata !"", metadata !150, i32 246, metadata !805, i1 false, i1 false, i32 0, i32 0, null, i32 256, i1 false, null, null, i32 0, metadata !166, i32 246} ; [ DW_TAG_subprogram ]
!805 = metadata !{i32 786453, i32 0, metadata !"", i32 0, i32 0, i64 0, i64 0, i64 0, i32 0, null, metadata !806, i32 0, i32 0} ; [ DW_TAG_subroutine_type ]
!806 = metadata !{null, metadata !785, metadata !202}
!807 = metadata !{i32 786478, i32 0, metadata !526, metadata !"ap_uint", metadata !"ap_uint", metadata !"", metadata !150, i32 247, metadata !808, i1 false, i1 false, i32 0, i32 0, null, i32 256, i1 false, null, null, i32 0, metadata !166, i32 247} ; [ DW_TAG_subprogram ]
!808 = metadata !{i32 786453, i32 0, metadata !"", i32 0, i32 0, i64 0, i64 0, i64 0, i32 0, null, metadata !809, i32 0, i32 0} ; [ DW_TAG_subroutine_type ]
!809 = metadata !{null, metadata !785, metadata !206}
!810 = metadata !{i32 786478, i32 0, metadata !526, metadata !"ap_uint", metadata !"ap_uint", metadata !"", metadata !150, i32 248, metadata !811, i1 false, i1 false, i32 0, i32 0, null, i32 256, i1 false, null, null, i32 0, metadata !166, i32 248} ; [ DW_TAG_subprogram ]
!811 = metadata !{i32 786453, i32 0, metadata !"", i32 0, i32 0, i64 0, i64 0, i64 0, i32 0, null, metadata !812, i32 0, i32 0} ; [ DW_TAG_subroutine_type ]
!812 = metadata !{null, metadata !785, metadata !210}
!813 = metadata !{i32 786478, i32 0, metadata !526, metadata !"ap_uint", metadata !"ap_uint", metadata !"", metadata !150, i32 249, metadata !814, i1 false, i1 false, i32 0, i32 0, null, i32 256, i1 false, null, null, i32 0, metadata !166, i32 249} ; [ DW_TAG_subprogram ]
!814 = metadata !{i32 786453, i32 0, metadata !"", i32 0, i32 0, i64 0, i64 0, i64 0, i32 0, null, metadata !815, i32 0, i32 0} ; [ DW_TAG_subroutine_type ]
!815 = metadata !{null, metadata !785, metadata !214}
!816 = metadata !{i32 786478, i32 0, metadata !526, metadata !"ap_uint", metadata !"ap_uint", metadata !"", metadata !150, i32 250, metadata !817, i1 false, i1 false, i32 0, i32 0, null, i32 256, i1 false, null, null, i32 0, metadata !166, i32 250} ; [ DW_TAG_subprogram ]
!817 = metadata !{i32 786453, i32 0, metadata !"", i32 0, i32 0, i64 0, i64 0, i64 0, i32 0, null, metadata !818, i32 0, i32 0} ; [ DW_TAG_subroutine_type ]
!818 = metadata !{null, metadata !785, metadata !175}
!819 = metadata !{i32 786478, i32 0, metadata !526, metadata !"ap_uint", metadata !"ap_uint", metadata !"", metadata !150, i32 251, metadata !820, i1 false, i1 false, i32 0, i32 0, null, i32 256, i1 false, null, null, i32 0, metadata !166, i32 251} ; [ DW_TAG_subprogram ]
!820 = metadata !{i32 786453, i32 0, metadata !"", i32 0, i32 0, i64 0, i64 0, i64 0, i32 0, null, metadata !821, i32 0, i32 0} ; [ DW_TAG_subroutine_type ]
!821 = metadata !{null, metadata !785, metadata !221}
!822 = metadata !{i32 786478, i32 0, metadata !526, metadata !"ap_uint", metadata !"ap_uint", metadata !"", metadata !150, i32 252, metadata !823, i1 false, i1 false, i32 0, i32 0, null, i32 256, i1 false, null, null, i32 0, metadata !166, i32 252} ; [ DW_TAG_subprogram ]
!823 = metadata !{i32 786453, i32 0, metadata !"", i32 0, i32 0, i64 0, i64 0, i64 0, i32 0, null, metadata !824, i32 0, i32 0} ; [ DW_TAG_subroutine_type ]
!824 = metadata !{null, metadata !785, metadata !225}
!825 = metadata !{i32 786478, i32 0, metadata !526, metadata !"ap_uint", metadata !"ap_uint", metadata !"", metadata !150, i32 253, metadata !826, i1 false, i1 false, i32 0, i32 0, null, i32 256, i1 false, null, null, i32 0, metadata !166, i32 253} ; [ DW_TAG_subprogram ]
!826 = metadata !{i32 786453, i32 0, metadata !"", i32 0, i32 0, i64 0, i64 0, i64 0, i32 0, null, metadata !827, i32 0, i32 0} ; [ DW_TAG_subroutine_type ]
!827 = metadata !{null, metadata !785, metadata !229}
!828 = metadata !{i32 786478, i32 0, metadata !526, metadata !"ap_uint", metadata !"ap_uint", metadata !"", metadata !150, i32 254, metadata !829, i1 false, i1 false, i32 0, i32 0, null, i32 256, i1 false, null, null, i32 0, metadata !166, i32 254} ; [ DW_TAG_subprogram ]
!829 = metadata !{i32 786453, i32 0, metadata !"", i32 0, i32 0, i64 0, i64 0, i64 0, i32 0, null, metadata !830, i32 0, i32 0} ; [ DW_TAG_subroutine_type ]
!830 = metadata !{null, metadata !785, metadata !239}
!831 = metadata !{i32 786478, i32 0, metadata !526, metadata !"ap_uint", metadata !"ap_uint", metadata !"", metadata !150, i32 255, metadata !832, i1 false, i1 false, i32 0, i32 0, null, i32 256, i1 false, null, null, i32 0, metadata !166, i32 255} ; [ DW_TAG_subprogram ]
!832 = metadata !{i32 786453, i32 0, metadata !"", i32 0, i32 0, i64 0, i64 0, i64 0, i32 0, null, metadata !833, i32 0, i32 0} ; [ DW_TAG_subroutine_type ]
!833 = metadata !{null, metadata !785, metadata !234}
!834 = metadata !{i32 786478, i32 0, metadata !526, metadata !"ap_uint", metadata !"ap_uint", metadata !"", metadata !150, i32 256, metadata !835, i1 false, i1 false, i32 0, i32 0, null, i32 256, i1 false, null, null, i32 0, metadata !166, i32 256} ; [ DW_TAG_subprogram ]
!835 = metadata !{i32 786453, i32 0, metadata !"", i32 0, i32 0, i64 0, i64 0, i64 0, i32 0, null, metadata !836, i32 0, i32 0} ; [ DW_TAG_subroutine_type ]
!836 = metadata !{null, metadata !785, metadata !243}
!837 = metadata !{i32 786478, i32 0, metadata !526, metadata !"ap_uint", metadata !"ap_uint", metadata !"", metadata !150, i32 257, metadata !838, i1 false, i1 false, i32 0, i32 0, null, i32 256, i1 false, null, null, i32 0, metadata !166, i32 257} ; [ DW_TAG_subprogram ]
!838 = metadata !{i32 786453, i32 0, metadata !"", i32 0, i32 0, i64 0, i64 0, i64 0, i32 0, null, metadata !839, i32 0, i32 0} ; [ DW_TAG_subroutine_type ]
!839 = metadata !{null, metadata !785, metadata !247}
!840 = metadata !{i32 786478, i32 0, metadata !526, metadata !"ap_uint", metadata !"ap_uint", metadata !"", metadata !150, i32 259, metadata !841, i1 false, i1 false, i32 0, i32 0, null, i32 256, i1 false, null, null, i32 0, metadata !166, i32 259} ; [ DW_TAG_subprogram ]
!841 = metadata !{i32 786453, i32 0, metadata !"", i32 0, i32 0, i64 0, i64 0, i64 0, i32 0, null, metadata !842, i32 0, i32 0} ; [ DW_TAG_subroutine_type ]
!842 = metadata !{null, metadata !785, metadata !251}
!843 = metadata !{i32 786478, i32 0, metadata !526, metadata !"ap_uint", metadata !"ap_uint", metadata !"", metadata !150, i32 260, metadata !844, i1 false, i1 false, i32 0, i32 0, null, i32 256, i1 false, null, null, i32 0, metadata !166, i32 260} ; [ DW_TAG_subprogram ]
!844 = metadata !{i32 786453, i32 0, metadata !"", i32 0, i32 0, i64 0, i64 0, i64 0, i32 0, null, metadata !845, i32 0, i32 0} ; [ DW_TAG_subroutine_type ]
!845 = metadata !{null, metadata !785, metadata !251, metadata !202}
!846 = metadata !{i32 786478, i32 0, metadata !526, metadata !"operator=", metadata !"operator=", metadata !"_ZNV7ap_uintILi14EEaSERKS0_", metadata !150, i32 263, metadata !847, i1 false, i1 false, i32 0, i32 0, null, i32 256, i1 false, null, null, i32 0, metadata !166, i32 263} ; [ DW_TAG_subprogram ]
!847 = metadata !{i32 786453, i32 0, metadata !"", i32 0, i32 0, i64 0, i64 0, i64 0, i32 0, null, metadata !848, i32 0, i32 0} ; [ DW_TAG_subroutine_type ]
!848 = metadata !{null, metadata !849, metadata !789}
!849 = metadata !{i32 786447, i32 0, metadata !"", i32 0, i32 0, i64 64, i64 64, i64 0, i32 64, metadata !797} ; [ DW_TAG_pointer_type ]
!850 = metadata !{i32 786478, i32 0, metadata !526, metadata !"operator=", metadata !"operator=", metadata !"_ZNV7ap_uintILi14EEaSERVKS0_", metadata !150, i32 267, metadata !851, i1 false, i1 false, i32 0, i32 0, null, i32 256, i1 false, null, null, i32 0, metadata !166, i32 267} ; [ DW_TAG_subprogram ]
!851 = metadata !{i32 786453, i32 0, metadata !"", i32 0, i32 0, i64 0, i64 0, i64 0, i32 0, null, metadata !852, i32 0, i32 0} ; [ DW_TAG_subroutine_type ]
!852 = metadata !{null, metadata !849, metadata !795}
!853 = metadata !{i32 786478, i32 0, metadata !526, metadata !"operator=", metadata !"operator=", metadata !"_ZN7ap_uintILi14EEaSERVKS0_", metadata !150, i32 271, metadata !854, i1 false, i1 false, i32 0, i32 0, null, i32 256, i1 false, null, null, i32 0, metadata !166, i32 271} ; [ DW_TAG_subprogram ]
!854 = metadata !{i32 786453, i32 0, metadata !"", i32 0, i32 0, i64 0, i64 0, i64 0, i32 0, null, metadata !855, i32 0, i32 0} ; [ DW_TAG_subroutine_type ]
!855 = metadata !{metadata !856, metadata !785, metadata !795}
!856 = metadata !{i32 786448, null, null, null, i32 0, i64 0, i64 0, i64 0, i32 0, metadata !526} ; [ DW_TAG_reference_type ]
!857 = metadata !{i32 786478, i32 0, metadata !526, metadata !"operator=", metadata !"operator=", metadata !"_ZN7ap_uintILi14EEaSERKS0_", metadata !150, i32 276, metadata !858, i1 false, i1 false, i32 0, i32 0, null, i32 256, i1 false, null, null, i32 0, metadata !166, i32 276} ; [ DW_TAG_subprogram ]
!858 = metadata !{i32 786453, i32 0, metadata !"", i32 0, i32 0, i64 0, i64 0, i64 0, i32 0, null, metadata !859, i32 0, i32 0} ; [ DW_TAG_subroutine_type ]
!859 = metadata !{metadata !856, metadata !785, metadata !789}
!860 = metadata !{i32 786478, i32 0, metadata !526, metadata !"ap_uint", metadata !"ap_uint", metadata !"", metadata !150, i32 180, metadata !787, i1 false, i1 false, i32 0, i32 0, null, i32 320, i1 false, null, null, i32 0, metadata !166, i32 180} ; [ DW_TAG_subprogram ]
!861 = metadata !{i32 786478, i32 0, metadata !526, metadata !"~ap_uint", metadata !"~ap_uint", metadata !"", metadata !150, i32 180, metadata !783, i1 false, i1 false, i32 0, i32 0, null, i32 320, i1 false, null, null, i32 0, metadata !166, i32 180} ; [ DW_TAG_subprogram ]
!862 = metadata !{metadata !781}
!863 = metadata !{i32 786445, metadata !144, metadata !"r", metadata !145, i32 51, i64 8, i64 8, i64 32, i32 1, metadata !864} ; [ DW_TAG_member ]
!864 = metadata !{i32 786454, null, metadata !"FullR_Layer_PS", metadata !145, i32 11, i64 0, i64 0, i64 0, i32 0, metadata !865} ; [ DW_TAG_typedef ]
!865 = metadata !{i32 786434, null, metadata !"ap_uint<7>", metadata !150, i32 180, i64 8, i64 8, i32 0, i32 0, null, metadata !866, i32 0, null, metadata !1722} ; [ DW_TAG_class_type ]
!866 = metadata !{metadata !867, metadata !1642, metadata !1646, metadata !1652, metadata !1658, metadata !1661, metadata !1664, metadata !1667, metadata !1670, metadata !1673, metadata !1676, metadata !1679, metadata !1682, metadata !1685, metadata !1688, metadata !1691, metadata !1694, metadata !1697, metadata !1700, metadata !1703, metadata !1706, metadata !1710, metadata !1713, metadata !1717, metadata !1720, metadata !1721}
!867 = metadata !{i32 786460, metadata !865, null, metadata !150, i32 0, i64 0, i64 0, i64 0, i32 0, metadata !868} ; [ DW_TAG_inheritance ]
!868 = metadata !{i32 786434, null, metadata !"ap_int_base<7, false, true>", metadata !154, i32 1397, i64 8, i64 8, i32 0, i32 0, null, metadata !869, i32 0, null, metadata !1640} ; [ DW_TAG_class_type ]
!869 = metadata !{metadata !870, metadata !886, metadata !890, metadata !897, metadata !903, metadata !906, metadata !909, metadata !912, metadata !915, metadata !918, metadata !921, metadata !924, metadata !927, metadata !930, metadata !933, metadata !936, metadata !939, metadata !942, metadata !945, metadata !948, metadata !952, metadata !955, metadata !958, metadata !959, metadata !963, metadata !966, metadata !969, metadata !972, metadata !975, metadata !978, metadata !981, metadata !984, metadata !987, metadata !990, metadata !993, metadata !996, metadata !1005, metadata !1008, metadata !1011, metadata !1014, metadata !1017, metadata !1020, metadata !1023, metadata !1026, metadata !1029, metadata !1032, metadata !1035, metadata !1038, metadata !1041, metadata !1042, metadata !1046, metadata !1049, metadata !1050, metadata !1051, metadata !1052, metadata !1053, metadata !1054, metadata !1057, metadata !1058, metadata !1061, metadata !1062, metadata !1063, metadata !1064, metadata !1065, metadata !1066, metadata !1069, metadata !1070, metadata !1071, metadata !1074, metadata !1075, metadata !1078, metadata !1079, metadata !1600, metadata !1604, metadata !1605, metadata !1608, metadata !1609, metadata !1613, metadata !1614, metadata !1615, metadata !1616, metadata !1619, metadata !1620, metadata !1621, metadata !1622, metadata !1623, metadata !1624, metadata !1625, metadata !1626, metadata !1627, metadata !1628, metadata !1629, metadata !1630, metadata !1633, metadata !1636, metadata !1639}
!870 = metadata !{i32 786460, metadata !868, null, metadata !154, i32 0, i64 0, i64 0, i64 0, i32 0, metadata !871} ; [ DW_TAG_inheritance ]
!871 = metadata !{i32 786434, null, metadata !"ssdm_int<7 + 1024 * 0, false>", metadata !158, i32 9, i64 8, i64 8, i32 0, i32 0, null, metadata !872, i32 0, null, metadata !884} ; [ DW_TAG_class_type ]
!872 = metadata !{metadata !873, metadata !875, metadata !879}
!873 = metadata !{i32 786445, metadata !871, metadata !"V", metadata !158, i32 9, i64 7, i64 8, i64 0, i32 0, metadata !874} ; [ DW_TAG_member ]
!874 = metadata !{i32 786468, null, metadata !"uint7", null, i32 0, i64 7, i64 8, i64 0, i32 0, i32 7} ; [ DW_TAG_base_type ]
!875 = metadata !{i32 786478, i32 0, metadata !871, metadata !"ssdm_int", metadata !"ssdm_int", metadata !"", metadata !158, i32 9, metadata !876, i1 false, i1 false, i32 0, i32 0, null, i32 256, i1 false, null, null, i32 0, metadata !166, i32 9} ; [ DW_TAG_subprogram ]
!876 = metadata !{i32 786453, i32 0, metadata !"", i32 0, i32 0, i64 0, i64 0, i64 0, i32 0, null, metadata !877, i32 0, i32 0} ; [ DW_TAG_subroutine_type ]
!877 = metadata !{null, metadata !878}
!878 = metadata !{i32 786447, i32 0, metadata !"", i32 0, i32 0, i64 64, i64 64, i64 0, i32 64, metadata !871} ; [ DW_TAG_pointer_type ]
!879 = metadata !{i32 786478, i32 0, metadata !871, metadata !"ssdm_int", metadata !"ssdm_int", metadata !"", metadata !158, i32 9, metadata !880, i1 false, i1 false, i32 0, i32 0, null, i32 320, i1 false, null, null, i32 0, metadata !166, i32 9} ; [ DW_TAG_subprogram ]
!880 = metadata !{i32 786453, i32 0, metadata !"", i32 0, i32 0, i64 0, i64 0, i64 0, i32 0, null, metadata !881, i32 0, i32 0} ; [ DW_TAG_subroutine_type ]
!881 = metadata !{null, metadata !878, metadata !882}
!882 = metadata !{i32 786448, null, null, null, i32 0, i64 0, i64 0, i64 0, i32 0, metadata !883} ; [ DW_TAG_reference_type ]
!883 = metadata !{i32 786470, null, metadata !"", null, i32 0, i64 0, i64 0, i64 0, i32 0, metadata !871} ; [ DW_TAG_const_type ]
!884 = metadata !{metadata !885, metadata !176}
!885 = metadata !{i32 786480, null, metadata !"_AP_N", metadata !175, i64 7, null, i32 0, i32 0} ; [ DW_TAG_template_value_parameter ]
!886 = metadata !{i32 786478, i32 0, metadata !868, metadata !"ap_int_base", metadata !"ap_int_base", metadata !"", metadata !154, i32 1438, metadata !887, i1 false, i1 false, i32 0, i32 0, null, i32 256, i1 false, null, null, i32 0, metadata !166, i32 1438} ; [ DW_TAG_subprogram ]
!887 = metadata !{i32 786453, i32 0, metadata !"", i32 0, i32 0, i64 0, i64 0, i64 0, i32 0, null, metadata !888, i32 0, i32 0} ; [ DW_TAG_subroutine_type ]
!888 = metadata !{null, metadata !889}
!889 = metadata !{i32 786447, i32 0, metadata !"", i32 0, i32 0, i64 64, i64 64, i64 0, i32 64, metadata !868} ; [ DW_TAG_pointer_type ]
!890 = metadata !{i32 786478, i32 0, metadata !868, metadata !"ap_int_base<7, false>", metadata !"ap_int_base<7, false>", metadata !"", metadata !154, i32 1450, metadata !891, i1 false, i1 false, i32 0, i32 0, null, i32 256, i1 false, null, metadata !895, i32 0, metadata !166, i32 1450} ; [ DW_TAG_subprogram ]
!891 = metadata !{i32 786453, i32 0, metadata !"", i32 0, i32 0, i64 0, i64 0, i64 0, i32 0, null, metadata !892, i32 0, i32 0} ; [ DW_TAG_subroutine_type ]
!892 = metadata !{null, metadata !889, metadata !893}
!893 = metadata !{i32 786448, null, null, null, i32 0, i64 0, i64 0, i64 0, i32 0, metadata !894} ; [ DW_TAG_reference_type ]
!894 = metadata !{i32 786470, null, metadata !"", null, i32 0, i64 0, i64 0, i64 0, i32 0, metadata !868} ; [ DW_TAG_const_type ]
!895 = metadata !{metadata !896, metadata !189}
!896 = metadata !{i32 786480, null, metadata !"_AP_W2", metadata !175, i64 7, null, i32 0, i32 0} ; [ DW_TAG_template_value_parameter ]
!897 = metadata !{i32 786478, i32 0, metadata !868, metadata !"ap_int_base<7, false>", metadata !"ap_int_base<7, false>", metadata !"", metadata !154, i32 1453, metadata !898, i1 false, i1 false, i32 0, i32 0, null, i32 256, i1 false, null, metadata !895, i32 0, metadata !166, i32 1453} ; [ DW_TAG_subprogram ]
!898 = metadata !{i32 786453, i32 0, metadata !"", i32 0, i32 0, i64 0, i64 0, i64 0, i32 0, null, metadata !899, i32 0, i32 0} ; [ DW_TAG_subroutine_type ]
!899 = metadata !{null, metadata !889, metadata !900}
!900 = metadata !{i32 786448, null, null, null, i32 0, i64 0, i64 0, i64 0, i32 0, metadata !901} ; [ DW_TAG_reference_type ]
!901 = metadata !{i32 786470, null, metadata !"", null, i32 0, i64 0, i64 0, i64 0, i32 0, metadata !902} ; [ DW_TAG_const_type ]
!902 = metadata !{i32 786485, null, metadata !"", null, i32 0, i64 0, i64 0, i64 0, i32 0, metadata !868} ; [ DW_TAG_volatile_type ]
!903 = metadata !{i32 786478, i32 0, metadata !868, metadata !"ap_int_base", metadata !"ap_int_base", metadata !"", metadata !154, i32 1460, metadata !904, i1 false, i1 false, i32 0, i32 0, null, i32 384, i1 false, null, null, i32 0, metadata !166, i32 1460} ; [ DW_TAG_subprogram ]
!904 = metadata !{i32 786453, i32 0, metadata !"", i32 0, i32 0, i64 0, i64 0, i64 0, i32 0, null, metadata !905, i32 0, i32 0} ; [ DW_TAG_subroutine_type ]
!905 = metadata !{null, metadata !889, metadata !177}
!906 = metadata !{i32 786478, i32 0, metadata !868, metadata !"ap_int_base", metadata !"ap_int_base", metadata !"", metadata !154, i32 1461, metadata !907, i1 false, i1 false, i32 0, i32 0, null, i32 384, i1 false, null, null, i32 0, metadata !166, i32 1461} ; [ DW_TAG_subprogram ]
!907 = metadata !{i32 786453, i32 0, metadata !"", i32 0, i32 0, i64 0, i64 0, i64 0, i32 0, null, metadata !908, i32 0, i32 0} ; [ DW_TAG_subroutine_type ]
!908 = metadata !{null, metadata !889, metadata !202}
!909 = metadata !{i32 786478, i32 0, metadata !868, metadata !"ap_int_base", metadata !"ap_int_base", metadata !"", metadata !154, i32 1462, metadata !910, i1 false, i1 false, i32 0, i32 0, null, i32 384, i1 false, null, null, i32 0, metadata !166, i32 1462} ; [ DW_TAG_subprogram ]
!910 = metadata !{i32 786453, i32 0, metadata !"", i32 0, i32 0, i64 0, i64 0, i64 0, i32 0, null, metadata !911, i32 0, i32 0} ; [ DW_TAG_subroutine_type ]
!911 = metadata !{null, metadata !889, metadata !206}
!912 = metadata !{i32 786478, i32 0, metadata !868, metadata !"ap_int_base", metadata !"ap_int_base", metadata !"", metadata !154, i32 1463, metadata !913, i1 false, i1 false, i32 0, i32 0, null, i32 384, i1 false, null, null, i32 0, metadata !166, i32 1463} ; [ DW_TAG_subprogram ]
!913 = metadata !{i32 786453, i32 0, metadata !"", i32 0, i32 0, i64 0, i64 0, i64 0, i32 0, null, metadata !914, i32 0, i32 0} ; [ DW_TAG_subroutine_type ]
!914 = metadata !{null, metadata !889, metadata !210}
!915 = metadata !{i32 786478, i32 0, metadata !868, metadata !"ap_int_base", metadata !"ap_int_base", metadata !"", metadata !154, i32 1464, metadata !916, i1 false, i1 false, i32 0, i32 0, null, i32 384, i1 false, null, null, i32 0, metadata !166, i32 1464} ; [ DW_TAG_subprogram ]
!916 = metadata !{i32 786453, i32 0, metadata !"", i32 0, i32 0, i64 0, i64 0, i64 0, i32 0, null, metadata !917, i32 0, i32 0} ; [ DW_TAG_subroutine_type ]
!917 = metadata !{null, metadata !889, metadata !214}
!918 = metadata !{i32 786478, i32 0, metadata !868, metadata !"ap_int_base", metadata !"ap_int_base", metadata !"", metadata !154, i32 1465, metadata !919, i1 false, i1 false, i32 0, i32 0, null, i32 384, i1 false, null, null, i32 0, metadata !166, i32 1465} ; [ DW_TAG_subprogram ]
!919 = metadata !{i32 786453, i32 0, metadata !"", i32 0, i32 0, i64 0, i64 0, i64 0, i32 0, null, metadata !920, i32 0, i32 0} ; [ DW_TAG_subroutine_type ]
!920 = metadata !{null, metadata !889, metadata !175}
!921 = metadata !{i32 786478, i32 0, metadata !868, metadata !"ap_int_base", metadata !"ap_int_base", metadata !"", metadata !154, i32 1466, metadata !922, i1 false, i1 false, i32 0, i32 0, null, i32 384, i1 false, null, null, i32 0, metadata !166, i32 1466} ; [ DW_TAG_subprogram ]
!922 = metadata !{i32 786453, i32 0, metadata !"", i32 0, i32 0, i64 0, i64 0, i64 0, i32 0, null, metadata !923, i32 0, i32 0} ; [ DW_TAG_subroutine_type ]
!923 = metadata !{null, metadata !889, metadata !221}
!924 = metadata !{i32 786478, i32 0, metadata !868, metadata !"ap_int_base", metadata !"ap_int_base", metadata !"", metadata !154, i32 1467, metadata !925, i1 false, i1 false, i32 0, i32 0, null, i32 384, i1 false, null, null, i32 0, metadata !166, i32 1467} ; [ DW_TAG_subprogram ]
!925 = metadata !{i32 786453, i32 0, metadata !"", i32 0, i32 0, i64 0, i64 0, i64 0, i32 0, null, metadata !926, i32 0, i32 0} ; [ DW_TAG_subroutine_type ]
!926 = metadata !{null, metadata !889, metadata !225}
!927 = metadata !{i32 786478, i32 0, metadata !868, metadata !"ap_int_base", metadata !"ap_int_base", metadata !"", metadata !154, i32 1468, metadata !928, i1 false, i1 false, i32 0, i32 0, null, i32 384, i1 false, null, null, i32 0, metadata !166, i32 1468} ; [ DW_TAG_subprogram ]
!928 = metadata !{i32 786453, i32 0, metadata !"", i32 0, i32 0, i64 0, i64 0, i64 0, i32 0, null, metadata !929, i32 0, i32 0} ; [ DW_TAG_subroutine_type ]
!929 = metadata !{null, metadata !889, metadata !229}
!930 = metadata !{i32 786478, i32 0, metadata !868, metadata !"ap_int_base", metadata !"ap_int_base", metadata !"", metadata !154, i32 1469, metadata !931, i1 false, i1 false, i32 0, i32 0, null, i32 384, i1 false, null, null, i32 0, metadata !166, i32 1469} ; [ DW_TAG_subprogram ]
!931 = metadata !{i32 786453, i32 0, metadata !"", i32 0, i32 0, i64 0, i64 0, i64 0, i32 0, null, metadata !932, i32 0, i32 0} ; [ DW_TAG_subroutine_type ]
!932 = metadata !{null, metadata !889, metadata !233}
!933 = metadata !{i32 786478, i32 0, metadata !868, metadata !"ap_int_base", metadata !"ap_int_base", metadata !"", metadata !154, i32 1470, metadata !934, i1 false, i1 false, i32 0, i32 0, null, i32 384, i1 false, null, null, i32 0, metadata !166, i32 1470} ; [ DW_TAG_subprogram ]
!934 = metadata !{i32 786453, i32 0, metadata !"", i32 0, i32 0, i64 0, i64 0, i64 0, i32 0, null, metadata !935, i32 0, i32 0} ; [ DW_TAG_subroutine_type ]
!935 = metadata !{null, metadata !889, metadata !238}
!936 = metadata !{i32 786478, i32 0, metadata !868, metadata !"ap_int_base", metadata !"ap_int_base", metadata !"", metadata !154, i32 1471, metadata !937, i1 false, i1 false, i32 0, i32 0, null, i32 384, i1 false, null, null, i32 0, metadata !166, i32 1471} ; [ DW_TAG_subprogram ]
!937 = metadata !{i32 786453, i32 0, metadata !"", i32 0, i32 0, i64 0, i64 0, i64 0, i32 0, null, metadata !938, i32 0, i32 0} ; [ DW_TAG_subroutine_type ]
!938 = metadata !{null, metadata !889, metadata !243}
!939 = metadata !{i32 786478, i32 0, metadata !868, metadata !"ap_int_base", metadata !"ap_int_base", metadata !"", metadata !154, i32 1472, metadata !940, i1 false, i1 false, i32 0, i32 0, null, i32 384, i1 false, null, null, i32 0, metadata !166, i32 1472} ; [ DW_TAG_subprogram ]
!940 = metadata !{i32 786453, i32 0, metadata !"", i32 0, i32 0, i64 0, i64 0, i64 0, i32 0, null, metadata !941, i32 0, i32 0} ; [ DW_TAG_subroutine_type ]
!941 = metadata !{null, metadata !889, metadata !247}
!942 = metadata !{i32 786478, i32 0, metadata !868, metadata !"ap_int_base", metadata !"ap_int_base", metadata !"", metadata !154, i32 1499, metadata !943, i1 false, i1 false, i32 0, i32 0, null, i32 256, i1 false, null, null, i32 0, metadata !166, i32 1499} ; [ DW_TAG_subprogram ]
!943 = metadata !{i32 786453, i32 0, metadata !"", i32 0, i32 0, i64 0, i64 0, i64 0, i32 0, null, metadata !944, i32 0, i32 0} ; [ DW_TAG_subroutine_type ]
!944 = metadata !{null, metadata !889, metadata !251}
!945 = metadata !{i32 786478, i32 0, metadata !868, metadata !"ap_int_base", metadata !"ap_int_base", metadata !"", metadata !154, i32 1506, metadata !946, i1 false, i1 false, i32 0, i32 0, null, i32 256, i1 false, null, null, i32 0, metadata !166, i32 1506} ; [ DW_TAG_subprogram ]
!946 = metadata !{i32 786453, i32 0, metadata !"", i32 0, i32 0, i64 0, i64 0, i64 0, i32 0, null, metadata !947, i32 0, i32 0} ; [ DW_TAG_subroutine_type ]
!947 = metadata !{null, metadata !889, metadata !251, metadata !202}
!948 = metadata !{i32 786478, i32 0, metadata !868, metadata !"read", metadata !"read", metadata !"_ZNV11ap_int_baseILi7ELb0ELb1EE4readEv", metadata !154, i32 1527, metadata !949, i1 false, i1 false, i32 0, i32 0, null, i32 256, i1 false, null, null, i32 0, metadata !166, i32 1527} ; [ DW_TAG_subprogram ]
!949 = metadata !{i32 786453, i32 0, metadata !"", i32 0, i32 0, i64 0, i64 0, i64 0, i32 0, null, metadata !950, i32 0, i32 0} ; [ DW_TAG_subroutine_type ]
!950 = metadata !{metadata !868, metadata !951}
!951 = metadata !{i32 786447, i32 0, metadata !"", i32 0, i32 0, i64 64, i64 64, i64 0, i32 64, metadata !902} ; [ DW_TAG_pointer_type ]
!952 = metadata !{i32 786478, i32 0, metadata !868, metadata !"write", metadata !"write", metadata !"_ZNV11ap_int_baseILi7ELb0ELb1EE5writeERKS0_", metadata !154, i32 1533, metadata !953, i1 false, i1 false, i32 0, i32 0, null, i32 256, i1 false, null, null, i32 0, metadata !166, i32 1533} ; [ DW_TAG_subprogram ]
!953 = metadata !{i32 786453, i32 0, metadata !"", i32 0, i32 0, i64 0, i64 0, i64 0, i32 0, null, metadata !954, i32 0, i32 0} ; [ DW_TAG_subroutine_type ]
!954 = metadata !{null, metadata !951, metadata !893}
!955 = metadata !{i32 786478, i32 0, metadata !868, metadata !"operator=", metadata !"operator=", metadata !"_ZNV11ap_int_baseILi7ELb0ELb1EEaSERVKS0_", metadata !154, i32 1545, metadata !956, i1 false, i1 false, i32 0, i32 0, null, i32 256, i1 false, null, null, i32 0, metadata !166, i32 1545} ; [ DW_TAG_subprogram ]
!956 = metadata !{i32 786453, i32 0, metadata !"", i32 0, i32 0, i64 0, i64 0, i64 0, i32 0, null, metadata !957, i32 0, i32 0} ; [ DW_TAG_subroutine_type ]
!957 = metadata !{null, metadata !951, metadata !900}
!958 = metadata !{i32 786478, i32 0, metadata !868, metadata !"operator=", metadata !"operator=", metadata !"_ZNV11ap_int_baseILi7ELb0ELb1EEaSERKS0_", metadata !154, i32 1554, metadata !953, i1 false, i1 false, i32 0, i32 0, null, i32 256, i1 false, null, null, i32 0, metadata !166, i32 1554} ; [ DW_TAG_subprogram ]
!959 = metadata !{i32 786478, i32 0, metadata !868, metadata !"operator=", metadata !"operator=", metadata !"_ZN11ap_int_baseILi7ELb0ELb1EEaSERVKS0_", metadata !154, i32 1577, metadata !960, i1 false, i1 false, i32 0, i32 0, null, i32 256, i1 false, null, null, i32 0, metadata !166, i32 1577} ; [ DW_TAG_subprogram ]
!960 = metadata !{i32 786453, i32 0, metadata !"", i32 0, i32 0, i64 0, i64 0, i64 0, i32 0, null, metadata !961, i32 0, i32 0} ; [ DW_TAG_subroutine_type ]
!961 = metadata !{metadata !962, metadata !889, metadata !900}
!962 = metadata !{i32 786448, null, null, null, i32 0, i64 0, i64 0, i64 0, i32 0, metadata !868} ; [ DW_TAG_reference_type ]
!963 = metadata !{i32 786478, i32 0, metadata !868, metadata !"operator=", metadata !"operator=", metadata !"_ZN11ap_int_baseILi7ELb0ELb1EEaSERKS0_", metadata !154, i32 1582, metadata !964, i1 false, i1 false, i32 0, i32 0, null, i32 256, i1 false, null, null, i32 0, metadata !166, i32 1582} ; [ DW_TAG_subprogram ]
!964 = metadata !{i32 786453, i32 0, metadata !"", i32 0, i32 0, i64 0, i64 0, i64 0, i32 0, null, metadata !965, i32 0, i32 0} ; [ DW_TAG_subroutine_type ]
!965 = metadata !{metadata !962, metadata !889, metadata !893}
!966 = metadata !{i32 786478, i32 0, metadata !868, metadata !"operator=", metadata !"operator=", metadata !"_ZN11ap_int_baseILi7ELb0ELb1EEaSEPKc", metadata !154, i32 1586, metadata !967, i1 false, i1 false, i32 0, i32 0, null, i32 256, i1 false, null, null, i32 0, metadata !166, i32 1586} ; [ DW_TAG_subprogram ]
!967 = metadata !{i32 786453, i32 0, metadata !"", i32 0, i32 0, i64 0, i64 0, i64 0, i32 0, null, metadata !968, i32 0, i32 0} ; [ DW_TAG_subroutine_type ]
!968 = metadata !{metadata !962, metadata !889, metadata !251}
!969 = metadata !{i32 786478, i32 0, metadata !868, metadata !"set", metadata !"set", metadata !"_ZN11ap_int_baseILi7ELb0ELb1EE3setEPKca", metadata !154, i32 1594, metadata !970, i1 false, i1 false, i32 0, i32 0, null, i32 256, i1 false, null, null, i32 0, metadata !166, i32 1594} ; [ DW_TAG_subprogram ]
!970 = metadata !{i32 786453, i32 0, metadata !"", i32 0, i32 0, i64 0, i64 0, i64 0, i32 0, null, metadata !971, i32 0, i32 0} ; [ DW_TAG_subroutine_type ]
!971 = metadata !{metadata !962, metadata !889, metadata !251, metadata !202}
!972 = metadata !{i32 786478, i32 0, metadata !868, metadata !"operator=", metadata !"operator=", metadata !"_ZN11ap_int_baseILi7ELb0ELb1EEaSEa", metadata !154, i32 1608, metadata !973, i1 false, i1 false, i32 0, i32 0, null, i32 256, i1 false, null, null, i32 0, metadata !166, i32 1608} ; [ DW_TAG_subprogram ]
!973 = metadata !{i32 786453, i32 0, metadata !"", i32 0, i32 0, i64 0, i64 0, i64 0, i32 0, null, metadata !974, i32 0, i32 0} ; [ DW_TAG_subroutine_type ]
!974 = metadata !{metadata !962, metadata !889, metadata !202}
!975 = metadata !{i32 786478, i32 0, metadata !868, metadata !"operator=", metadata !"operator=", metadata !"_ZN11ap_int_baseILi7ELb0ELb1EEaSEh", metadata !154, i32 1609, metadata !976, i1 false, i1 false, i32 0, i32 0, null, i32 256, i1 false, null, null, i32 0, metadata !166, i32 1609} ; [ DW_TAG_subprogram ]
!976 = metadata !{i32 786453, i32 0, metadata !"", i32 0, i32 0, i64 0, i64 0, i64 0, i32 0, null, metadata !977, i32 0, i32 0} ; [ DW_TAG_subroutine_type ]
!977 = metadata !{metadata !962, metadata !889, metadata !206}
!978 = metadata !{i32 786478, i32 0, metadata !868, metadata !"operator=", metadata !"operator=", metadata !"_ZN11ap_int_baseILi7ELb0ELb1EEaSEs", metadata !154, i32 1610, metadata !979, i1 false, i1 false, i32 0, i32 0, null, i32 256, i1 false, null, null, i32 0, metadata !166, i32 1610} ; [ DW_TAG_subprogram ]
!979 = metadata !{i32 786453, i32 0, metadata !"", i32 0, i32 0, i64 0, i64 0, i64 0, i32 0, null, metadata !980, i32 0, i32 0} ; [ DW_TAG_subroutine_type ]
!980 = metadata !{metadata !962, metadata !889, metadata !210}
!981 = metadata !{i32 786478, i32 0, metadata !868, metadata !"operator=", metadata !"operator=", metadata !"_ZN11ap_int_baseILi7ELb0ELb1EEaSEt", metadata !154, i32 1611, metadata !982, i1 false, i1 false, i32 0, i32 0, null, i32 256, i1 false, null, null, i32 0, metadata !166, i32 1611} ; [ DW_TAG_subprogram ]
!982 = metadata !{i32 786453, i32 0, metadata !"", i32 0, i32 0, i64 0, i64 0, i64 0, i32 0, null, metadata !983, i32 0, i32 0} ; [ DW_TAG_subroutine_type ]
!983 = metadata !{metadata !962, metadata !889, metadata !214}
!984 = metadata !{i32 786478, i32 0, metadata !868, metadata !"operator=", metadata !"operator=", metadata !"_ZN11ap_int_baseILi7ELb0ELb1EEaSEi", metadata !154, i32 1612, metadata !985, i1 false, i1 false, i32 0, i32 0, null, i32 256, i1 false, null, null, i32 0, metadata !166, i32 1612} ; [ DW_TAG_subprogram ]
!985 = metadata !{i32 786453, i32 0, metadata !"", i32 0, i32 0, i64 0, i64 0, i64 0, i32 0, null, metadata !986, i32 0, i32 0} ; [ DW_TAG_subroutine_type ]
!986 = metadata !{metadata !962, metadata !889, metadata !175}
!987 = metadata !{i32 786478, i32 0, metadata !868, metadata !"operator=", metadata !"operator=", metadata !"_ZN11ap_int_baseILi7ELb0ELb1EEaSEj", metadata !154, i32 1613, metadata !988, i1 false, i1 false, i32 0, i32 0, null, i32 256, i1 false, null, null, i32 0, metadata !166, i32 1613} ; [ DW_TAG_subprogram ]
!988 = metadata !{i32 786453, i32 0, metadata !"", i32 0, i32 0, i64 0, i64 0, i64 0, i32 0, null, metadata !989, i32 0, i32 0} ; [ DW_TAG_subroutine_type ]
!989 = metadata !{metadata !962, metadata !889, metadata !221}
!990 = metadata !{i32 786478, i32 0, metadata !868, metadata !"operator=", metadata !"operator=", metadata !"_ZN11ap_int_baseILi7ELb0ELb1EEaSEx", metadata !154, i32 1614, metadata !991, i1 false, i1 false, i32 0, i32 0, null, i32 256, i1 false, null, null, i32 0, metadata !166, i32 1614} ; [ DW_TAG_subprogram ]
!991 = metadata !{i32 786453, i32 0, metadata !"", i32 0, i32 0, i64 0, i64 0, i64 0, i32 0, null, metadata !992, i32 0, i32 0} ; [ DW_TAG_subroutine_type ]
!992 = metadata !{metadata !962, metadata !889, metadata !233}
!993 = metadata !{i32 786478, i32 0, metadata !868, metadata !"operator=", metadata !"operator=", metadata !"_ZN11ap_int_baseILi7ELb0ELb1EEaSEy", metadata !154, i32 1615, metadata !994, i1 false, i1 false, i32 0, i32 0, null, i32 256, i1 false, null, null, i32 0, metadata !166, i32 1615} ; [ DW_TAG_subprogram ]
!994 = metadata !{i32 786453, i32 0, metadata !"", i32 0, i32 0, i64 0, i64 0, i64 0, i32 0, null, metadata !995, i32 0, i32 0} ; [ DW_TAG_subroutine_type ]
!995 = metadata !{metadata !962, metadata !889, metadata !238}
!996 = metadata !{i32 786478, i32 0, metadata !868, metadata !"operator unsigned char", metadata !"operator unsigned char", metadata !"_ZNK11ap_int_baseILi7ELb0ELb1EEcvhEv", metadata !154, i32 1653, metadata !997, i1 false, i1 false, i32 0, i32 0, null, i32 256, i1 false, null, null, i32 0, metadata !166, i32 1653} ; [ DW_TAG_subprogram ]
!997 = metadata !{i32 786453, i32 0, metadata !"", i32 0, i32 0, i64 0, i64 0, i64 0, i32 0, null, metadata !998, i32 0, i32 0} ; [ DW_TAG_subroutine_type ]
!998 = metadata !{metadata !999, metadata !1004}
!999 = metadata !{i32 786454, metadata !868, metadata !"RetType", metadata !154, i32 1402, i64 0, i64 0, i64 0, i32 0, metadata !1000} ; [ DW_TAG_typedef ]
!1000 = metadata !{i32 786454, metadata !1001, metadata !"Type", metadata !154, i32 1370, i64 0, i64 0, i64 0, i32 0, metadata !206} ; [ DW_TAG_typedef ]
!1001 = metadata !{i32 786434, null, metadata !"retval<1, false>", metadata !154, i32 1369, i64 8, i64 8, i32 0, i32 0, null, metadata !311, i32 0, null, metadata !1002} ; [ DW_TAG_class_type ]
!1002 = metadata !{metadata !1003, metadata !176}
!1003 = metadata !{i32 786480, null, metadata !"_AP_N", metadata !175, i64 1, null, i32 0, i32 0} ; [ DW_TAG_template_value_parameter ]
!1004 = metadata !{i32 786447, i32 0, metadata !"", i32 0, i32 0, i64 64, i64 64, i64 0, i32 64, metadata !894} ; [ DW_TAG_pointer_type ]
!1005 = metadata !{i32 786478, i32 0, metadata !868, metadata !"to_bool", metadata !"to_bool", metadata !"_ZNK11ap_int_baseILi7ELb0ELb1EE7to_boolEv", metadata !154, i32 1659, metadata !1006, i1 false, i1 false, i32 0, i32 0, null, i32 256, i1 false, null, null, i32 0, metadata !166, i32 1659} ; [ DW_TAG_subprogram ]
!1006 = metadata !{i32 786453, i32 0, metadata !"", i32 0, i32 0, i64 0, i64 0, i64 0, i32 0, null, metadata !1007, i32 0, i32 0} ; [ DW_TAG_subroutine_type ]
!1007 = metadata !{metadata !177, metadata !1004}
!1008 = metadata !{i32 786478, i32 0, metadata !868, metadata !"to_uchar", metadata !"to_uchar", metadata !"_ZNK11ap_int_baseILi7ELb0ELb1EE8to_ucharEv", metadata !154, i32 1660, metadata !1009, i1 false, i1 false, i32 0, i32 0, null, i32 256, i1 false, null, null, i32 0, metadata !166, i32 1660} ; [ DW_TAG_subprogram ]
!1009 = metadata !{i32 786453, i32 0, metadata !"", i32 0, i32 0, i64 0, i64 0, i64 0, i32 0, null, metadata !1010, i32 0, i32 0} ; [ DW_TAG_subroutine_type ]
!1010 = metadata !{metadata !206, metadata !1004}
!1011 = metadata !{i32 786478, i32 0, metadata !868, metadata !"to_char", metadata !"to_char", metadata !"_ZNK11ap_int_baseILi7ELb0ELb1EE7to_charEv", metadata !154, i32 1661, metadata !1012, i1 false, i1 false, i32 0, i32 0, null, i32 256, i1 false, null, null, i32 0, metadata !166, i32 1661} ; [ DW_TAG_subprogram ]
!1012 = metadata !{i32 786453, i32 0, metadata !"", i32 0, i32 0, i64 0, i64 0, i64 0, i32 0, null, metadata !1013, i32 0, i32 0} ; [ DW_TAG_subroutine_type ]
!1013 = metadata !{metadata !202, metadata !1004}
!1014 = metadata !{i32 786478, i32 0, metadata !868, metadata !"to_ushort", metadata !"to_ushort", metadata !"_ZNK11ap_int_baseILi7ELb0ELb1EE9to_ushortEv", metadata !154, i32 1662, metadata !1015, i1 false, i1 false, i32 0, i32 0, null, i32 256, i1 false, null, null, i32 0, metadata !166, i32 1662} ; [ DW_TAG_subprogram ]
!1015 = metadata !{i32 786453, i32 0, metadata !"", i32 0, i32 0, i64 0, i64 0, i64 0, i32 0, null, metadata !1016, i32 0, i32 0} ; [ DW_TAG_subroutine_type ]
!1016 = metadata !{metadata !214, metadata !1004}
!1017 = metadata !{i32 786478, i32 0, metadata !868, metadata !"to_short", metadata !"to_short", metadata !"_ZNK11ap_int_baseILi7ELb0ELb1EE8to_shortEv", metadata !154, i32 1663, metadata !1018, i1 false, i1 false, i32 0, i32 0, null, i32 256, i1 false, null, null, i32 0, metadata !166, i32 1663} ; [ DW_TAG_subprogram ]
!1018 = metadata !{i32 786453, i32 0, metadata !"", i32 0, i32 0, i64 0, i64 0, i64 0, i32 0, null, metadata !1019, i32 0, i32 0} ; [ DW_TAG_subroutine_type ]
!1019 = metadata !{metadata !210, metadata !1004}
!1020 = metadata !{i32 786478, i32 0, metadata !868, metadata !"to_int", metadata !"to_int", metadata !"_ZNK11ap_int_baseILi7ELb0ELb1EE6to_intEv", metadata !154, i32 1664, metadata !1021, i1 false, i1 false, i32 0, i32 0, null, i32 256, i1 false, null, null, i32 0, metadata !166, i32 1664} ; [ DW_TAG_subprogram ]
!1021 = metadata !{i32 786453, i32 0, metadata !"", i32 0, i32 0, i64 0, i64 0, i64 0, i32 0, null, metadata !1022, i32 0, i32 0} ; [ DW_TAG_subroutine_type ]
!1022 = metadata !{metadata !175, metadata !1004}
!1023 = metadata !{i32 786478, i32 0, metadata !868, metadata !"to_uint", metadata !"to_uint", metadata !"_ZNK11ap_int_baseILi7ELb0ELb1EE7to_uintEv", metadata !154, i32 1665, metadata !1024, i1 false, i1 false, i32 0, i32 0, null, i32 256, i1 false, null, null, i32 0, metadata !166, i32 1665} ; [ DW_TAG_subprogram ]
!1024 = metadata !{i32 786453, i32 0, metadata !"", i32 0, i32 0, i64 0, i64 0, i64 0, i32 0, null, metadata !1025, i32 0, i32 0} ; [ DW_TAG_subroutine_type ]
!1025 = metadata !{metadata !221, metadata !1004}
!1026 = metadata !{i32 786478, i32 0, metadata !868, metadata !"to_long", metadata !"to_long", metadata !"_ZNK11ap_int_baseILi7ELb0ELb1EE7to_longEv", metadata !154, i32 1666, metadata !1027, i1 false, i1 false, i32 0, i32 0, null, i32 256, i1 false, null, null, i32 0, metadata !166, i32 1666} ; [ DW_TAG_subprogram ]
!1027 = metadata !{i32 786453, i32 0, metadata !"", i32 0, i32 0, i64 0, i64 0, i64 0, i32 0, null, metadata !1028, i32 0, i32 0} ; [ DW_TAG_subroutine_type ]
!1028 = metadata !{metadata !225, metadata !1004}
!1029 = metadata !{i32 786478, i32 0, metadata !868, metadata !"to_ulong", metadata !"to_ulong", metadata !"_ZNK11ap_int_baseILi7ELb0ELb1EE8to_ulongEv", metadata !154, i32 1667, metadata !1030, i1 false, i1 false, i32 0, i32 0, null, i32 256, i1 false, null, null, i32 0, metadata !166, i32 1667} ; [ DW_TAG_subprogram ]
!1030 = metadata !{i32 786453, i32 0, metadata !"", i32 0, i32 0, i64 0, i64 0, i64 0, i32 0, null, metadata !1031, i32 0, i32 0} ; [ DW_TAG_subroutine_type ]
!1031 = metadata !{metadata !229, metadata !1004}
!1032 = metadata !{i32 786478, i32 0, metadata !868, metadata !"to_int64", metadata !"to_int64", metadata !"_ZNK11ap_int_baseILi7ELb0ELb1EE8to_int64Ev", metadata !154, i32 1668, metadata !1033, i1 false, i1 false, i32 0, i32 0, null, i32 256, i1 false, null, null, i32 0, metadata !166, i32 1668} ; [ DW_TAG_subprogram ]
!1033 = metadata !{i32 786453, i32 0, metadata !"", i32 0, i32 0, i64 0, i64 0, i64 0, i32 0, null, metadata !1034, i32 0, i32 0} ; [ DW_TAG_subroutine_type ]
!1034 = metadata !{metadata !233, metadata !1004}
!1035 = metadata !{i32 786478, i32 0, metadata !868, metadata !"to_uint64", metadata !"to_uint64", metadata !"_ZNK11ap_int_baseILi7ELb0ELb1EE9to_uint64Ev", metadata !154, i32 1669, metadata !1036, i1 false, i1 false, i32 0, i32 0, null, i32 256, i1 false, null, null, i32 0, metadata !166, i32 1669} ; [ DW_TAG_subprogram ]
!1036 = metadata !{i32 786453, i32 0, metadata !"", i32 0, i32 0, i64 0, i64 0, i64 0, i32 0, null, metadata !1037, i32 0, i32 0} ; [ DW_TAG_subroutine_type ]
!1037 = metadata !{metadata !238, metadata !1004}
!1038 = metadata !{i32 786478, i32 0, metadata !868, metadata !"to_double", metadata !"to_double", metadata !"_ZNK11ap_int_baseILi7ELb0ELb1EE9to_doubleEv", metadata !154, i32 1670, metadata !1039, i1 false, i1 false, i32 0, i32 0, null, i32 256, i1 false, null, null, i32 0, metadata !166, i32 1670} ; [ DW_TAG_subprogram ]
!1039 = metadata !{i32 786453, i32 0, metadata !"", i32 0, i32 0, i64 0, i64 0, i64 0, i32 0, null, metadata !1040, i32 0, i32 0} ; [ DW_TAG_subroutine_type ]
!1040 = metadata !{metadata !247, metadata !1004}
!1041 = metadata !{i32 786478, i32 0, metadata !868, metadata !"length", metadata !"length", metadata !"_ZNK11ap_int_baseILi7ELb0ELb1EE6lengthEv", metadata !154, i32 1684, metadata !1021, i1 false, i1 false, i32 0, i32 0, null, i32 256, i1 false, null, null, i32 0, metadata !166, i32 1684} ; [ DW_TAG_subprogram ]
!1042 = metadata !{i32 786478, i32 0, metadata !868, metadata !"length", metadata !"length", metadata !"_ZNVK11ap_int_baseILi7ELb0ELb1EE6lengthEv", metadata !154, i32 1685, metadata !1043, i1 false, i1 false, i32 0, i32 0, null, i32 256, i1 false, null, null, i32 0, metadata !166, i32 1685} ; [ DW_TAG_subprogram ]
!1043 = metadata !{i32 786453, i32 0, metadata !"", i32 0, i32 0, i64 0, i64 0, i64 0, i32 0, null, metadata !1044, i32 0, i32 0} ; [ DW_TAG_subroutine_type ]
!1044 = metadata !{metadata !175, metadata !1045}
!1045 = metadata !{i32 786447, i32 0, metadata !"", i32 0, i32 0, i64 64, i64 64, i64 0, i32 64, metadata !901} ; [ DW_TAG_pointer_type ]
!1046 = metadata !{i32 786478, i32 0, metadata !868, metadata !"reverse", metadata !"reverse", metadata !"_ZN11ap_int_baseILi7ELb0ELb1EE7reverseEv", metadata !154, i32 1690, metadata !1047, i1 false, i1 false, i32 0, i32 0, null, i32 256, i1 false, null, null, i32 0, metadata !166, i32 1690} ; [ DW_TAG_subprogram ]
!1047 = metadata !{i32 786453, i32 0, metadata !"", i32 0, i32 0, i64 0, i64 0, i64 0, i32 0, null, metadata !1048, i32 0, i32 0} ; [ DW_TAG_subroutine_type ]
!1048 = metadata !{metadata !962, metadata !889}
!1049 = metadata !{i32 786478, i32 0, metadata !868, metadata !"iszero", metadata !"iszero", metadata !"_ZNK11ap_int_baseILi7ELb0ELb1EE6iszeroEv", metadata !154, i32 1696, metadata !1006, i1 false, i1 false, i32 0, i32 0, null, i32 256, i1 false, null, null, i32 0, metadata !166, i32 1696} ; [ DW_TAG_subprogram ]
!1050 = metadata !{i32 786478, i32 0, metadata !868, metadata !"is_zero", metadata !"is_zero", metadata !"_ZNK11ap_int_baseILi7ELb0ELb1EE7is_zeroEv", metadata !154, i32 1701, metadata !1006, i1 false, i1 false, i32 0, i32 0, null, i32 256, i1 false, null, null, i32 0, metadata !166, i32 1701} ; [ DW_TAG_subprogram ]
!1051 = metadata !{i32 786478, i32 0, metadata !868, metadata !"sign", metadata !"sign", metadata !"_ZNK11ap_int_baseILi7ELb0ELb1EE4signEv", metadata !154, i32 1706, metadata !1006, i1 false, i1 false, i32 0, i32 0, null, i32 256, i1 false, null, null, i32 0, metadata !166, i32 1706} ; [ DW_TAG_subprogram ]
!1052 = metadata !{i32 786478, i32 0, metadata !868, metadata !"clear", metadata !"clear", metadata !"_ZN11ap_int_baseILi7ELb0ELb1EE5clearEi", metadata !154, i32 1714, metadata !919, i1 false, i1 false, i32 0, i32 0, null, i32 256, i1 false, null, null, i32 0, metadata !166, i32 1714} ; [ DW_TAG_subprogram ]
!1053 = metadata !{i32 786478, i32 0, metadata !868, metadata !"invert", metadata !"invert", metadata !"_ZN11ap_int_baseILi7ELb0ELb1EE6invertEi", metadata !154, i32 1720, metadata !919, i1 false, i1 false, i32 0, i32 0, null, i32 256, i1 false, null, null, i32 0, metadata !166, i32 1720} ; [ DW_TAG_subprogram ]
!1054 = metadata !{i32 786478, i32 0, metadata !868, metadata !"test", metadata !"test", metadata !"_ZNK11ap_int_baseILi7ELb0ELb1EE4testEi", metadata !154, i32 1728, metadata !1055, i1 false, i1 false, i32 0, i32 0, null, i32 256, i1 false, null, null, i32 0, metadata !166, i32 1728} ; [ DW_TAG_subprogram ]
!1055 = metadata !{i32 786453, i32 0, metadata !"", i32 0, i32 0, i64 0, i64 0, i64 0, i32 0, null, metadata !1056, i32 0, i32 0} ; [ DW_TAG_subroutine_type ]
!1056 = metadata !{metadata !177, metadata !1004, metadata !175}
!1057 = metadata !{i32 786478, i32 0, metadata !868, metadata !"set", metadata !"set", metadata !"_ZN11ap_int_baseILi7ELb0ELb1EE3setEi", metadata !154, i32 1734, metadata !919, i1 false, i1 false, i32 0, i32 0, null, i32 256, i1 false, null, null, i32 0, metadata !166, i32 1734} ; [ DW_TAG_subprogram ]
!1058 = metadata !{i32 786478, i32 0, metadata !868, metadata !"set", metadata !"set", metadata !"_ZN11ap_int_baseILi7ELb0ELb1EE3setEib", metadata !154, i32 1740, metadata !1059, i1 false, i1 false, i32 0, i32 0, null, i32 256, i1 false, null, null, i32 0, metadata !166, i32 1740} ; [ DW_TAG_subprogram ]
!1059 = metadata !{i32 786453, i32 0, metadata !"", i32 0, i32 0, i64 0, i64 0, i64 0, i32 0, null, metadata !1060, i32 0, i32 0} ; [ DW_TAG_subroutine_type ]
!1060 = metadata !{null, metadata !889, metadata !175, metadata !177}
!1061 = metadata !{i32 786478, i32 0, metadata !868, metadata !"lrotate", metadata !"lrotate", metadata !"_ZN11ap_int_baseILi7ELb0ELb1EE7lrotateEi", metadata !154, i32 1747, metadata !919, i1 false, i1 false, i32 0, i32 0, null, i32 256, i1 false, null, null, i32 0, metadata !166, i32 1747} ; [ DW_TAG_subprogram ]
!1062 = metadata !{i32 786478, i32 0, metadata !868, metadata !"rrotate", metadata !"rrotate", metadata !"_ZN11ap_int_baseILi7ELb0ELb1EE7rrotateEi", metadata !154, i32 1756, metadata !919, i1 false, i1 false, i32 0, i32 0, null, i32 256, i1 false, null, null, i32 0, metadata !166, i32 1756} ; [ DW_TAG_subprogram ]
!1063 = metadata !{i32 786478, i32 0, metadata !868, metadata !"set_bit", metadata !"set_bit", metadata !"_ZN11ap_int_baseILi7ELb0ELb1EE7set_bitEib", metadata !154, i32 1764, metadata !1059, i1 false, i1 false, i32 0, i32 0, null, i32 256, i1 false, null, null, i32 0, metadata !166, i32 1764} ; [ DW_TAG_subprogram ]
!1064 = metadata !{i32 786478, i32 0, metadata !868, metadata !"get_bit", metadata !"get_bit", metadata !"_ZNK11ap_int_baseILi7ELb0ELb1EE7get_bitEi", metadata !154, i32 1769, metadata !1055, i1 false, i1 false, i32 0, i32 0, null, i32 256, i1 false, null, null, i32 0, metadata !166, i32 1769} ; [ DW_TAG_subprogram ]
!1065 = metadata !{i32 786478, i32 0, metadata !868, metadata !"b_not", metadata !"b_not", metadata !"_ZN11ap_int_baseILi7ELb0ELb1EE5b_notEv", metadata !154, i32 1774, metadata !887, i1 false, i1 false, i32 0, i32 0, null, i32 256, i1 false, null, null, i32 0, metadata !166, i32 1774} ; [ DW_TAG_subprogram ]
!1066 = metadata !{i32 786478, i32 0, metadata !868, metadata !"countLeadingZeros", metadata !"countLeadingZeros", metadata !"_ZN11ap_int_baseILi7ELb0ELb1EE17countLeadingZerosEv", metadata !154, i32 1781, metadata !1067, i1 false, i1 false, i32 0, i32 0, null, i32 256, i1 false, null, null, i32 0, metadata !166, i32 1781} ; [ DW_TAG_subprogram ]
!1067 = metadata !{i32 786453, i32 0, metadata !"", i32 0, i32 0, i64 0, i64 0, i64 0, i32 0, null, metadata !1068, i32 0, i32 0} ; [ DW_TAG_subroutine_type ]
!1068 = metadata !{metadata !175, metadata !889}
!1069 = metadata !{i32 786478, i32 0, metadata !868, metadata !"operator++", metadata !"operator++", metadata !"_ZN11ap_int_baseILi7ELb0ELb1EEppEv", metadata !154, i32 1838, metadata !1047, i1 false, i1 false, i32 0, i32 0, null, i32 256, i1 false, null, null, i32 0, metadata !166, i32 1838} ; [ DW_TAG_subprogram ]
!1070 = metadata !{i32 786478, i32 0, metadata !868, metadata !"operator--", metadata !"operator--", metadata !"_ZN11ap_int_baseILi7ELb0ELb1EEmmEv", metadata !154, i32 1842, metadata !1047, i1 false, i1 false, i32 0, i32 0, null, i32 256, i1 false, null, null, i32 0, metadata !166, i32 1842} ; [ DW_TAG_subprogram ]
!1071 = metadata !{i32 786478, i32 0, metadata !868, metadata !"operator++", metadata !"operator++", metadata !"_ZN11ap_int_baseILi7ELb0ELb1EEppEi", metadata !154, i32 1850, metadata !1072, i1 false, i1 false, i32 0, i32 0, null, i32 256, i1 false, null, null, i32 0, metadata !166, i32 1850} ; [ DW_TAG_subprogram ]
!1072 = metadata !{i32 786453, i32 0, metadata !"", i32 0, i32 0, i64 0, i64 0, i64 0, i32 0, null, metadata !1073, i32 0, i32 0} ; [ DW_TAG_subroutine_type ]
!1073 = metadata !{metadata !894, metadata !889, metadata !175}
!1074 = metadata !{i32 786478, i32 0, metadata !868, metadata !"operator--", metadata !"operator--", metadata !"_ZN11ap_int_baseILi7ELb0ELb1EEmmEi", metadata !154, i32 1855, metadata !1072, i1 false, i1 false, i32 0, i32 0, null, i32 256, i1 false, null, null, i32 0, metadata !166, i32 1855} ; [ DW_TAG_subprogram ]
!1075 = metadata !{i32 786478, i32 0, metadata !868, metadata !"operator+", metadata !"operator+", metadata !"_ZNK11ap_int_baseILi7ELb0ELb1EEpsEv", metadata !154, i32 1864, metadata !1076, i1 false, i1 false, i32 0, i32 0, null, i32 256, i1 false, null, null, i32 0, metadata !166, i32 1864} ; [ DW_TAG_subprogram ]
!1076 = metadata !{i32 786453, i32 0, metadata !"", i32 0, i32 0, i64 0, i64 0, i64 0, i32 0, null, metadata !1077, i32 0, i32 0} ; [ DW_TAG_subroutine_type ]
!1077 = metadata !{metadata !868, metadata !1004}
!1078 = metadata !{i32 786478, i32 0, metadata !868, metadata !"operator!", metadata !"operator!", metadata !"_ZNK11ap_int_baseILi7ELb0ELb1EEntEv", metadata !154, i32 1870, metadata !1006, i1 false, i1 false, i32 0, i32 0, null, i32 256, i1 false, null, null, i32 0, metadata !166, i32 1870} ; [ DW_TAG_subprogram ]
!1079 = metadata !{i32 786478, i32 0, metadata !868, metadata !"operator-", metadata !"operator-", metadata !"_ZNK11ap_int_baseILi7ELb0ELb1EEngEv", metadata !154, i32 1875, metadata !1080, i1 false, i1 false, i32 0, i32 0, null, i32 256, i1 false, null, null, i32 0, metadata !166, i32 1875} ; [ DW_TAG_subprogram ]
!1080 = metadata !{i32 786453, i32 0, metadata !"", i32 0, i32 0, i64 0, i64 0, i64 0, i32 0, null, metadata !1081, i32 0, i32 0} ; [ DW_TAG_subroutine_type ]
!1081 = metadata !{metadata !1082, metadata !1004}
!1082 = metadata !{i32 786434, null, metadata !"ap_int_base<8, true, true>", metadata !154, i32 1397, i64 8, i64 8, i32 0, i32 0, null, metadata !1083, i32 0, null, metadata !1598} ; [ DW_TAG_class_type ]
!1083 = metadata !{metadata !1084, metadata !1096, metadata !1100, metadata !1103, metadata !1106, metadata !1109, metadata !1112, metadata !1115, metadata !1118, metadata !1121, metadata !1124, metadata !1127, metadata !1130, metadata !1133, metadata !1136, metadata !1139, metadata !1142, metadata !1145, metadata !1150, metadata !1155, metadata !1160, metadata !1161, metadata !1165, metadata !1168, metadata !1171, metadata !1174, metadata !1177, metadata !1180, metadata !1183, metadata !1186, metadata !1189, metadata !1192, metadata !1195, metadata !1198, metadata !1206, metadata !1209, metadata !1212, metadata !1215, metadata !1218, metadata !1221, metadata !1224, metadata !1227, metadata !1230, metadata !1233, metadata !1236, metadata !1239, metadata !1242, metadata !1243, metadata !1247, metadata !1250, metadata !1251, metadata !1252, metadata !1253, metadata !1254, metadata !1255, metadata !1258, metadata !1259, metadata !1262, metadata !1263, metadata !1264, metadata !1265, metadata !1266, metadata !1267, metadata !1270, metadata !1271, metadata !1272, metadata !1275, metadata !1276, metadata !1279, metadata !1280, metadata !1559, metadata !1563, metadata !1564, metadata !1567, metadata !1568, metadata !1572, metadata !1573, metadata !1574, metadata !1575, metadata !1578, metadata !1579, metadata !1580, metadata !1581, metadata !1582, metadata !1583, metadata !1584, metadata !1585, metadata !1586, metadata !1587, metadata !1588, metadata !1589, metadata !1592, metadata !1595}
!1084 = metadata !{i32 786460, metadata !1082, null, metadata !154, i32 0, i64 0, i64 0, i64 0, i32 0, metadata !1085} ; [ DW_TAG_inheritance ]
!1085 = metadata !{i32 786434, null, metadata !"ssdm_int<8 + 1024 * 0, true>", metadata !158, i32 10, i64 8, i64 8, i32 0, i32 0, null, metadata !1086, i32 0, null, metadata !1093} ; [ DW_TAG_class_type ]
!1086 = metadata !{metadata !1087, metadata !1089}
!1087 = metadata !{i32 786445, metadata !1085, metadata !"V", metadata !158, i32 10, i64 8, i64 8, i64 0, i32 0, metadata !1088} ; [ DW_TAG_member ]
!1088 = metadata !{i32 786468, null, metadata !"int8", null, i32 0, i64 8, i64 8, i64 0, i32 0, i32 5} ; [ DW_TAG_base_type ]
!1089 = metadata !{i32 786478, i32 0, metadata !1085, metadata !"ssdm_int", metadata !"ssdm_int", metadata !"", metadata !158, i32 10, metadata !1090, i1 false, i1 false, i32 0, i32 0, null, i32 256, i1 false, null, null, i32 0, metadata !166, i32 10} ; [ DW_TAG_subprogram ]
!1090 = metadata !{i32 786453, i32 0, metadata !"", i32 0, i32 0, i64 0, i64 0, i64 0, i32 0, null, metadata !1091, i32 0, i32 0} ; [ DW_TAG_subroutine_type ]
!1091 = metadata !{null, metadata !1092}
!1092 = metadata !{i32 786447, i32 0, metadata !"", i32 0, i32 0, i64 64, i64 64, i64 0, i32 64, metadata !1085} ; [ DW_TAG_pointer_type ]
!1093 = metadata !{metadata !1094, metadata !1095}
!1094 = metadata !{i32 786480, null, metadata !"_AP_N", metadata !175, i64 8, null, i32 0, i32 0} ; [ DW_TAG_template_value_parameter ]
!1095 = metadata !{i32 786480, null, metadata !"_AP_S", metadata !177, i64 1, null, i32 0, i32 0} ; [ DW_TAG_template_value_parameter ]
!1096 = metadata !{i32 786478, i32 0, metadata !1082, metadata !"ap_int_base", metadata !"ap_int_base", metadata !"", metadata !154, i32 1438, metadata !1097, i1 false, i1 false, i32 0, i32 0, null, i32 256, i1 false, null, null, i32 0, metadata !166, i32 1438} ; [ DW_TAG_subprogram ]
!1097 = metadata !{i32 786453, i32 0, metadata !"", i32 0, i32 0, i64 0, i64 0, i64 0, i32 0, null, metadata !1098, i32 0, i32 0} ; [ DW_TAG_subroutine_type ]
!1098 = metadata !{null, metadata !1099}
!1099 = metadata !{i32 786447, i32 0, metadata !"", i32 0, i32 0, i64 64, i64 64, i64 0, i32 64, metadata !1082} ; [ DW_TAG_pointer_type ]
!1100 = metadata !{i32 786478, i32 0, metadata !1082, metadata !"ap_int_base", metadata !"ap_int_base", metadata !"", metadata !154, i32 1460, metadata !1101, i1 false, i1 false, i32 0, i32 0, null, i32 384, i1 false, null, null, i32 0, metadata !166, i32 1460} ; [ DW_TAG_subprogram ]
!1101 = metadata !{i32 786453, i32 0, metadata !"", i32 0, i32 0, i64 0, i64 0, i64 0, i32 0, null, metadata !1102, i32 0, i32 0} ; [ DW_TAG_subroutine_type ]
!1102 = metadata !{null, metadata !1099, metadata !177}
!1103 = metadata !{i32 786478, i32 0, metadata !1082, metadata !"ap_int_base", metadata !"ap_int_base", metadata !"", metadata !154, i32 1461, metadata !1104, i1 false, i1 false, i32 0, i32 0, null, i32 384, i1 false, null, null, i32 0, metadata !166, i32 1461} ; [ DW_TAG_subprogram ]
!1104 = metadata !{i32 786453, i32 0, metadata !"", i32 0, i32 0, i64 0, i64 0, i64 0, i32 0, null, metadata !1105, i32 0, i32 0} ; [ DW_TAG_subroutine_type ]
!1105 = metadata !{null, metadata !1099, metadata !202}
!1106 = metadata !{i32 786478, i32 0, metadata !1082, metadata !"ap_int_base", metadata !"ap_int_base", metadata !"", metadata !154, i32 1462, metadata !1107, i1 false, i1 false, i32 0, i32 0, null, i32 384, i1 false, null, null, i32 0, metadata !166, i32 1462} ; [ DW_TAG_subprogram ]
!1107 = metadata !{i32 786453, i32 0, metadata !"", i32 0, i32 0, i64 0, i64 0, i64 0, i32 0, null, metadata !1108, i32 0, i32 0} ; [ DW_TAG_subroutine_type ]
!1108 = metadata !{null, metadata !1099, metadata !206}
!1109 = metadata !{i32 786478, i32 0, metadata !1082, metadata !"ap_int_base", metadata !"ap_int_base", metadata !"", metadata !154, i32 1463, metadata !1110, i1 false, i1 false, i32 0, i32 0, null, i32 384, i1 false, null, null, i32 0, metadata !166, i32 1463} ; [ DW_TAG_subprogram ]
!1110 = metadata !{i32 786453, i32 0, metadata !"", i32 0, i32 0, i64 0, i64 0, i64 0, i32 0, null, metadata !1111, i32 0, i32 0} ; [ DW_TAG_subroutine_type ]
!1111 = metadata !{null, metadata !1099, metadata !210}
!1112 = metadata !{i32 786478, i32 0, metadata !1082, metadata !"ap_int_base", metadata !"ap_int_base", metadata !"", metadata !154, i32 1464, metadata !1113, i1 false, i1 false, i32 0, i32 0, null, i32 384, i1 false, null, null, i32 0, metadata !166, i32 1464} ; [ DW_TAG_subprogram ]
!1113 = metadata !{i32 786453, i32 0, metadata !"", i32 0, i32 0, i64 0, i64 0, i64 0, i32 0, null, metadata !1114, i32 0, i32 0} ; [ DW_TAG_subroutine_type ]
!1114 = metadata !{null, metadata !1099, metadata !214}
!1115 = metadata !{i32 786478, i32 0, metadata !1082, metadata !"ap_int_base", metadata !"ap_int_base", metadata !"", metadata !154, i32 1465, metadata !1116, i1 false, i1 false, i32 0, i32 0, null, i32 384, i1 false, null, null, i32 0, metadata !166, i32 1465} ; [ DW_TAG_subprogram ]
!1116 = metadata !{i32 786453, i32 0, metadata !"", i32 0, i32 0, i64 0, i64 0, i64 0, i32 0, null, metadata !1117, i32 0, i32 0} ; [ DW_TAG_subroutine_type ]
!1117 = metadata !{null, metadata !1099, metadata !175}
!1118 = metadata !{i32 786478, i32 0, metadata !1082, metadata !"ap_int_base", metadata !"ap_int_base", metadata !"", metadata !154, i32 1466, metadata !1119, i1 false, i1 false, i32 0, i32 0, null, i32 384, i1 false, null, null, i32 0, metadata !166, i32 1466} ; [ DW_TAG_subprogram ]
!1119 = metadata !{i32 786453, i32 0, metadata !"", i32 0, i32 0, i64 0, i64 0, i64 0, i32 0, null, metadata !1120, i32 0, i32 0} ; [ DW_TAG_subroutine_type ]
!1120 = metadata !{null, metadata !1099, metadata !221}
!1121 = metadata !{i32 786478, i32 0, metadata !1082, metadata !"ap_int_base", metadata !"ap_int_base", metadata !"", metadata !154, i32 1467, metadata !1122, i1 false, i1 false, i32 0, i32 0, null, i32 384, i1 false, null, null, i32 0, metadata !166, i32 1467} ; [ DW_TAG_subprogram ]
!1122 = metadata !{i32 786453, i32 0, metadata !"", i32 0, i32 0, i64 0, i64 0, i64 0, i32 0, null, metadata !1123, i32 0, i32 0} ; [ DW_TAG_subroutine_type ]
!1123 = metadata !{null, metadata !1099, metadata !225}
!1124 = metadata !{i32 786478, i32 0, metadata !1082, metadata !"ap_int_base", metadata !"ap_int_base", metadata !"", metadata !154, i32 1468, metadata !1125, i1 false, i1 false, i32 0, i32 0, null, i32 384, i1 false, null, null, i32 0, metadata !166, i32 1468} ; [ DW_TAG_subprogram ]
!1125 = metadata !{i32 786453, i32 0, metadata !"", i32 0, i32 0, i64 0, i64 0, i64 0, i32 0, null, metadata !1126, i32 0, i32 0} ; [ DW_TAG_subroutine_type ]
!1126 = metadata !{null, metadata !1099, metadata !229}
!1127 = metadata !{i32 786478, i32 0, metadata !1082, metadata !"ap_int_base", metadata !"ap_int_base", metadata !"", metadata !154, i32 1469, metadata !1128, i1 false, i1 false, i32 0, i32 0, null, i32 384, i1 false, null, null, i32 0, metadata !166, i32 1469} ; [ DW_TAG_subprogram ]
!1128 = metadata !{i32 786453, i32 0, metadata !"", i32 0, i32 0, i64 0, i64 0, i64 0, i32 0, null, metadata !1129, i32 0, i32 0} ; [ DW_TAG_subroutine_type ]
!1129 = metadata !{null, metadata !1099, metadata !233}
!1130 = metadata !{i32 786478, i32 0, metadata !1082, metadata !"ap_int_base", metadata !"ap_int_base", metadata !"", metadata !154, i32 1470, metadata !1131, i1 false, i1 false, i32 0, i32 0, null, i32 384, i1 false, null, null, i32 0, metadata !166, i32 1470} ; [ DW_TAG_subprogram ]
!1131 = metadata !{i32 786453, i32 0, metadata !"", i32 0, i32 0, i64 0, i64 0, i64 0, i32 0, null, metadata !1132, i32 0, i32 0} ; [ DW_TAG_subroutine_type ]
!1132 = metadata !{null, metadata !1099, metadata !238}
!1133 = metadata !{i32 786478, i32 0, metadata !1082, metadata !"ap_int_base", metadata !"ap_int_base", metadata !"", metadata !154, i32 1471, metadata !1134, i1 false, i1 false, i32 0, i32 0, null, i32 384, i1 false, null, null, i32 0, metadata !166, i32 1471} ; [ DW_TAG_subprogram ]
!1134 = metadata !{i32 786453, i32 0, metadata !"", i32 0, i32 0, i64 0, i64 0, i64 0, i32 0, null, metadata !1135, i32 0, i32 0} ; [ DW_TAG_subroutine_type ]
!1135 = metadata !{null, metadata !1099, metadata !243}
!1136 = metadata !{i32 786478, i32 0, metadata !1082, metadata !"ap_int_base", metadata !"ap_int_base", metadata !"", metadata !154, i32 1472, metadata !1137, i1 false, i1 false, i32 0, i32 0, null, i32 384, i1 false, null, null, i32 0, metadata !166, i32 1472} ; [ DW_TAG_subprogram ]
!1137 = metadata !{i32 786453, i32 0, metadata !"", i32 0, i32 0, i64 0, i64 0, i64 0, i32 0, null, metadata !1138, i32 0, i32 0} ; [ DW_TAG_subroutine_type ]
!1138 = metadata !{null, metadata !1099, metadata !247}
!1139 = metadata !{i32 786478, i32 0, metadata !1082, metadata !"ap_int_base", metadata !"ap_int_base", metadata !"", metadata !154, i32 1499, metadata !1140, i1 false, i1 false, i32 0, i32 0, null, i32 256, i1 false, null, null, i32 0, metadata !166, i32 1499} ; [ DW_TAG_subprogram ]
!1140 = metadata !{i32 786453, i32 0, metadata !"", i32 0, i32 0, i64 0, i64 0, i64 0, i32 0, null, metadata !1141, i32 0, i32 0} ; [ DW_TAG_subroutine_type ]
!1141 = metadata !{null, metadata !1099, metadata !251}
!1142 = metadata !{i32 786478, i32 0, metadata !1082, metadata !"ap_int_base", metadata !"ap_int_base", metadata !"", metadata !154, i32 1506, metadata !1143, i1 false, i1 false, i32 0, i32 0, null, i32 256, i1 false, null, null, i32 0, metadata !166, i32 1506} ; [ DW_TAG_subprogram ]
!1143 = metadata !{i32 786453, i32 0, metadata !"", i32 0, i32 0, i64 0, i64 0, i64 0, i32 0, null, metadata !1144, i32 0, i32 0} ; [ DW_TAG_subroutine_type ]
!1144 = metadata !{null, metadata !1099, metadata !251, metadata !202}
!1145 = metadata !{i32 786478, i32 0, metadata !1082, metadata !"read", metadata !"read", metadata !"_ZNV11ap_int_baseILi8ELb1ELb1EE4readEv", metadata !154, i32 1527, metadata !1146, i1 false, i1 false, i32 0, i32 0, null, i32 256, i1 false, null, null, i32 0, metadata !166, i32 1527} ; [ DW_TAG_subprogram ]
!1146 = metadata !{i32 786453, i32 0, metadata !"", i32 0, i32 0, i64 0, i64 0, i64 0, i32 0, null, metadata !1147, i32 0, i32 0} ; [ DW_TAG_subroutine_type ]
!1147 = metadata !{metadata !1082, metadata !1148}
!1148 = metadata !{i32 786447, i32 0, metadata !"", i32 0, i32 0, i64 64, i64 64, i64 0, i32 64, metadata !1149} ; [ DW_TAG_pointer_type ]
!1149 = metadata !{i32 786485, null, metadata !"", null, i32 0, i64 0, i64 0, i64 0, i32 0, metadata !1082} ; [ DW_TAG_volatile_type ]
!1150 = metadata !{i32 786478, i32 0, metadata !1082, metadata !"write", metadata !"write", metadata !"_ZNV11ap_int_baseILi8ELb1ELb1EE5writeERKS0_", metadata !154, i32 1533, metadata !1151, i1 false, i1 false, i32 0, i32 0, null, i32 256, i1 false, null, null, i32 0, metadata !166, i32 1533} ; [ DW_TAG_subprogram ]
!1151 = metadata !{i32 786453, i32 0, metadata !"", i32 0, i32 0, i64 0, i64 0, i64 0, i32 0, null, metadata !1152, i32 0, i32 0} ; [ DW_TAG_subroutine_type ]
!1152 = metadata !{null, metadata !1148, metadata !1153}
!1153 = metadata !{i32 786448, null, null, null, i32 0, i64 0, i64 0, i64 0, i32 0, metadata !1154} ; [ DW_TAG_reference_type ]
!1154 = metadata !{i32 786470, null, metadata !"", null, i32 0, i64 0, i64 0, i64 0, i32 0, metadata !1082} ; [ DW_TAG_const_type ]
!1155 = metadata !{i32 786478, i32 0, metadata !1082, metadata !"operator=", metadata !"operator=", metadata !"_ZNV11ap_int_baseILi8ELb1ELb1EEaSERVKS0_", metadata !154, i32 1545, metadata !1156, i1 false, i1 false, i32 0, i32 0, null, i32 256, i1 false, null, null, i32 0, metadata !166, i32 1545} ; [ DW_TAG_subprogram ]
!1156 = metadata !{i32 786453, i32 0, metadata !"", i32 0, i32 0, i64 0, i64 0, i64 0, i32 0, null, metadata !1157, i32 0, i32 0} ; [ DW_TAG_subroutine_type ]
!1157 = metadata !{null, metadata !1148, metadata !1158}
!1158 = metadata !{i32 786448, null, null, null, i32 0, i64 0, i64 0, i64 0, i32 0, metadata !1159} ; [ DW_TAG_reference_type ]
!1159 = metadata !{i32 786470, null, metadata !"", null, i32 0, i64 0, i64 0, i64 0, i32 0, metadata !1149} ; [ DW_TAG_const_type ]
!1160 = metadata !{i32 786478, i32 0, metadata !1082, metadata !"operator=", metadata !"operator=", metadata !"_ZNV11ap_int_baseILi8ELb1ELb1EEaSERKS0_", metadata !154, i32 1554, metadata !1151, i1 false, i1 false, i32 0, i32 0, null, i32 256, i1 false, null, null, i32 0, metadata !166, i32 1554} ; [ DW_TAG_subprogram ]
!1161 = metadata !{i32 786478, i32 0, metadata !1082, metadata !"operator=", metadata !"operator=", metadata !"_ZN11ap_int_baseILi8ELb1ELb1EEaSERVKS0_", metadata !154, i32 1577, metadata !1162, i1 false, i1 false, i32 0, i32 0, null, i32 256, i1 false, null, null, i32 0, metadata !166, i32 1577} ; [ DW_TAG_subprogram ]
!1162 = metadata !{i32 786453, i32 0, metadata !"", i32 0, i32 0, i64 0, i64 0, i64 0, i32 0, null, metadata !1163, i32 0, i32 0} ; [ DW_TAG_subroutine_type ]
!1163 = metadata !{metadata !1164, metadata !1099, metadata !1158}
!1164 = metadata !{i32 786448, null, null, null, i32 0, i64 0, i64 0, i64 0, i32 0, metadata !1082} ; [ DW_TAG_reference_type ]
!1165 = metadata !{i32 786478, i32 0, metadata !1082, metadata !"operator=", metadata !"operator=", metadata !"_ZN11ap_int_baseILi8ELb1ELb1EEaSERKS0_", metadata !154, i32 1582, metadata !1166, i1 false, i1 false, i32 0, i32 0, null, i32 256, i1 false, null, null, i32 0, metadata !166, i32 1582} ; [ DW_TAG_subprogram ]
!1166 = metadata !{i32 786453, i32 0, metadata !"", i32 0, i32 0, i64 0, i64 0, i64 0, i32 0, null, metadata !1167, i32 0, i32 0} ; [ DW_TAG_subroutine_type ]
!1167 = metadata !{metadata !1164, metadata !1099, metadata !1153}
!1168 = metadata !{i32 786478, i32 0, metadata !1082, metadata !"operator=", metadata !"operator=", metadata !"_ZN11ap_int_baseILi8ELb1ELb1EEaSEPKc", metadata !154, i32 1586, metadata !1169, i1 false, i1 false, i32 0, i32 0, null, i32 256, i1 false, null, null, i32 0, metadata !166, i32 1586} ; [ DW_TAG_subprogram ]
!1169 = metadata !{i32 786453, i32 0, metadata !"", i32 0, i32 0, i64 0, i64 0, i64 0, i32 0, null, metadata !1170, i32 0, i32 0} ; [ DW_TAG_subroutine_type ]
!1170 = metadata !{metadata !1164, metadata !1099, metadata !251}
!1171 = metadata !{i32 786478, i32 0, metadata !1082, metadata !"set", metadata !"set", metadata !"_ZN11ap_int_baseILi8ELb1ELb1EE3setEPKca", metadata !154, i32 1594, metadata !1172, i1 false, i1 false, i32 0, i32 0, null, i32 256, i1 false, null, null, i32 0, metadata !166, i32 1594} ; [ DW_TAG_subprogram ]
!1172 = metadata !{i32 786453, i32 0, metadata !"", i32 0, i32 0, i64 0, i64 0, i64 0, i32 0, null, metadata !1173, i32 0, i32 0} ; [ DW_TAG_subroutine_type ]
!1173 = metadata !{metadata !1164, metadata !1099, metadata !251, metadata !202}
!1174 = metadata !{i32 786478, i32 0, metadata !1082, metadata !"operator=", metadata !"operator=", metadata !"_ZN11ap_int_baseILi8ELb1ELb1EEaSEa", metadata !154, i32 1608, metadata !1175, i1 false, i1 false, i32 0, i32 0, null, i32 256, i1 false, null, null, i32 0, metadata !166, i32 1608} ; [ DW_TAG_subprogram ]
!1175 = metadata !{i32 786453, i32 0, metadata !"", i32 0, i32 0, i64 0, i64 0, i64 0, i32 0, null, metadata !1176, i32 0, i32 0} ; [ DW_TAG_subroutine_type ]
!1176 = metadata !{metadata !1164, metadata !1099, metadata !202}
!1177 = metadata !{i32 786478, i32 0, metadata !1082, metadata !"operator=", metadata !"operator=", metadata !"_ZN11ap_int_baseILi8ELb1ELb1EEaSEh", metadata !154, i32 1609, metadata !1178, i1 false, i1 false, i32 0, i32 0, null, i32 256, i1 false, null, null, i32 0, metadata !166, i32 1609} ; [ DW_TAG_subprogram ]
!1178 = metadata !{i32 786453, i32 0, metadata !"", i32 0, i32 0, i64 0, i64 0, i64 0, i32 0, null, metadata !1179, i32 0, i32 0} ; [ DW_TAG_subroutine_type ]
!1179 = metadata !{metadata !1164, metadata !1099, metadata !206}
!1180 = metadata !{i32 786478, i32 0, metadata !1082, metadata !"operator=", metadata !"operator=", metadata !"_ZN11ap_int_baseILi8ELb1ELb1EEaSEs", metadata !154, i32 1610, metadata !1181, i1 false, i1 false, i32 0, i32 0, null, i32 256, i1 false, null, null, i32 0, metadata !166, i32 1610} ; [ DW_TAG_subprogram ]
!1181 = metadata !{i32 786453, i32 0, metadata !"", i32 0, i32 0, i64 0, i64 0, i64 0, i32 0, null, metadata !1182, i32 0, i32 0} ; [ DW_TAG_subroutine_type ]
!1182 = metadata !{metadata !1164, metadata !1099, metadata !210}
!1183 = metadata !{i32 786478, i32 0, metadata !1082, metadata !"operator=", metadata !"operator=", metadata !"_ZN11ap_int_baseILi8ELb1ELb1EEaSEt", metadata !154, i32 1611, metadata !1184, i1 false, i1 false, i32 0, i32 0, null, i32 256, i1 false, null, null, i32 0, metadata !166, i32 1611} ; [ DW_TAG_subprogram ]
!1184 = metadata !{i32 786453, i32 0, metadata !"", i32 0, i32 0, i64 0, i64 0, i64 0, i32 0, null, metadata !1185, i32 0, i32 0} ; [ DW_TAG_subroutine_type ]
!1185 = metadata !{metadata !1164, metadata !1099, metadata !214}
!1186 = metadata !{i32 786478, i32 0, metadata !1082, metadata !"operator=", metadata !"operator=", metadata !"_ZN11ap_int_baseILi8ELb1ELb1EEaSEi", metadata !154, i32 1612, metadata !1187, i1 false, i1 false, i32 0, i32 0, null, i32 256, i1 false, null, null, i32 0, metadata !166, i32 1612} ; [ DW_TAG_subprogram ]
!1187 = metadata !{i32 786453, i32 0, metadata !"", i32 0, i32 0, i64 0, i64 0, i64 0, i32 0, null, metadata !1188, i32 0, i32 0} ; [ DW_TAG_subroutine_type ]
!1188 = metadata !{metadata !1164, metadata !1099, metadata !175}
!1189 = metadata !{i32 786478, i32 0, metadata !1082, metadata !"operator=", metadata !"operator=", metadata !"_ZN11ap_int_baseILi8ELb1ELb1EEaSEj", metadata !154, i32 1613, metadata !1190, i1 false, i1 false, i32 0, i32 0, null, i32 256, i1 false, null, null, i32 0, metadata !166, i32 1613} ; [ DW_TAG_subprogram ]
!1190 = metadata !{i32 786453, i32 0, metadata !"", i32 0, i32 0, i64 0, i64 0, i64 0, i32 0, null, metadata !1191, i32 0, i32 0} ; [ DW_TAG_subroutine_type ]
!1191 = metadata !{metadata !1164, metadata !1099, metadata !221}
!1192 = metadata !{i32 786478, i32 0, metadata !1082, metadata !"operator=", metadata !"operator=", metadata !"_ZN11ap_int_baseILi8ELb1ELb1EEaSEx", metadata !154, i32 1614, metadata !1193, i1 false, i1 false, i32 0, i32 0, null, i32 256, i1 false, null, null, i32 0, metadata !166, i32 1614} ; [ DW_TAG_subprogram ]
!1193 = metadata !{i32 786453, i32 0, metadata !"", i32 0, i32 0, i64 0, i64 0, i64 0, i32 0, null, metadata !1194, i32 0, i32 0} ; [ DW_TAG_subroutine_type ]
!1194 = metadata !{metadata !1164, metadata !1099, metadata !233}
!1195 = metadata !{i32 786478, i32 0, metadata !1082, metadata !"operator=", metadata !"operator=", metadata !"_ZN11ap_int_baseILi8ELb1ELb1EEaSEy", metadata !154, i32 1615, metadata !1196, i1 false, i1 false, i32 0, i32 0, null, i32 256, i1 false, null, null, i32 0, metadata !166, i32 1615} ; [ DW_TAG_subprogram ]
!1196 = metadata !{i32 786453, i32 0, metadata !"", i32 0, i32 0, i64 0, i64 0, i64 0, i32 0, null, metadata !1197, i32 0, i32 0} ; [ DW_TAG_subroutine_type ]
!1197 = metadata !{metadata !1164, metadata !1099, metadata !238}
!1198 = metadata !{i32 786478, i32 0, metadata !1082, metadata !"operator signed char", metadata !"operator signed char", metadata !"_ZNK11ap_int_baseILi8ELb1ELb1EEcvaEv", metadata !154, i32 1653, metadata !1199, i1 false, i1 false, i32 0, i32 0, null, i32 256, i1 false, null, null, i32 0, metadata !166, i32 1653} ; [ DW_TAG_subprogram ]
!1199 = metadata !{i32 786453, i32 0, metadata !"", i32 0, i32 0, i64 0, i64 0, i64 0, i32 0, null, metadata !1200, i32 0, i32 0} ; [ DW_TAG_subroutine_type ]
!1200 = metadata !{metadata !1201, metadata !1205}
!1201 = metadata !{i32 786454, metadata !1082, metadata !"RetType", metadata !154, i32 1402, i64 0, i64 0, i64 0, i32 0, metadata !1202} ; [ DW_TAG_typedef ]
!1202 = metadata !{i32 786454, metadata !1203, metadata !"Type", metadata !154, i32 1367, i64 0, i64 0, i64 0, i32 0, metadata !202} ; [ DW_TAG_typedef ]
!1203 = metadata !{i32 786434, null, metadata !"retval<1, true>", metadata !154, i32 1366, i64 8, i64 8, i32 0, i32 0, null, metadata !311, i32 0, null, metadata !1204} ; [ DW_TAG_class_type ]
!1204 = metadata !{metadata !1003, metadata !1095}
!1205 = metadata !{i32 786447, i32 0, metadata !"", i32 0, i32 0, i64 64, i64 64, i64 0, i32 64, metadata !1154} ; [ DW_TAG_pointer_type ]
!1206 = metadata !{i32 786478, i32 0, metadata !1082, metadata !"to_bool", metadata !"to_bool", metadata !"_ZNK11ap_int_baseILi8ELb1ELb1EE7to_boolEv", metadata !154, i32 1659, metadata !1207, i1 false, i1 false, i32 0, i32 0, null, i32 256, i1 false, null, null, i32 0, metadata !166, i32 1659} ; [ DW_TAG_subprogram ]
!1207 = metadata !{i32 786453, i32 0, metadata !"", i32 0, i32 0, i64 0, i64 0, i64 0, i32 0, null, metadata !1208, i32 0, i32 0} ; [ DW_TAG_subroutine_type ]
!1208 = metadata !{metadata !177, metadata !1205}
!1209 = metadata !{i32 786478, i32 0, metadata !1082, metadata !"to_uchar", metadata !"to_uchar", metadata !"_ZNK11ap_int_baseILi8ELb1ELb1EE8to_ucharEv", metadata !154, i32 1660, metadata !1210, i1 false, i1 false, i32 0, i32 0, null, i32 256, i1 false, null, null, i32 0, metadata !166, i32 1660} ; [ DW_TAG_subprogram ]
!1210 = metadata !{i32 786453, i32 0, metadata !"", i32 0, i32 0, i64 0, i64 0, i64 0, i32 0, null, metadata !1211, i32 0, i32 0} ; [ DW_TAG_subroutine_type ]
!1211 = metadata !{metadata !206, metadata !1205}
!1212 = metadata !{i32 786478, i32 0, metadata !1082, metadata !"to_char", metadata !"to_char", metadata !"_ZNK11ap_int_baseILi8ELb1ELb1EE7to_charEv", metadata !154, i32 1661, metadata !1213, i1 false, i1 false, i32 0, i32 0, null, i32 256, i1 false, null, null, i32 0, metadata !166, i32 1661} ; [ DW_TAG_subprogram ]
!1213 = metadata !{i32 786453, i32 0, metadata !"", i32 0, i32 0, i64 0, i64 0, i64 0, i32 0, null, metadata !1214, i32 0, i32 0} ; [ DW_TAG_subroutine_type ]
!1214 = metadata !{metadata !202, metadata !1205}
!1215 = metadata !{i32 786478, i32 0, metadata !1082, metadata !"to_ushort", metadata !"to_ushort", metadata !"_ZNK11ap_int_baseILi8ELb1ELb1EE9to_ushortEv", metadata !154, i32 1662, metadata !1216, i1 false, i1 false, i32 0, i32 0, null, i32 256, i1 false, null, null, i32 0, metadata !166, i32 1662} ; [ DW_TAG_subprogram ]
!1216 = metadata !{i32 786453, i32 0, metadata !"", i32 0, i32 0, i64 0, i64 0, i64 0, i32 0, null, metadata !1217, i32 0, i32 0} ; [ DW_TAG_subroutine_type ]
!1217 = metadata !{metadata !214, metadata !1205}
!1218 = metadata !{i32 786478, i32 0, metadata !1082, metadata !"to_short", metadata !"to_short", metadata !"_ZNK11ap_int_baseILi8ELb1ELb1EE8to_shortEv", metadata !154, i32 1663, metadata !1219, i1 false, i1 false, i32 0, i32 0, null, i32 256, i1 false, null, null, i32 0, metadata !166, i32 1663} ; [ DW_TAG_subprogram ]
!1219 = metadata !{i32 786453, i32 0, metadata !"", i32 0, i32 0, i64 0, i64 0, i64 0, i32 0, null, metadata !1220, i32 0, i32 0} ; [ DW_TAG_subroutine_type ]
!1220 = metadata !{metadata !210, metadata !1205}
!1221 = metadata !{i32 786478, i32 0, metadata !1082, metadata !"to_int", metadata !"to_int", metadata !"_ZNK11ap_int_baseILi8ELb1ELb1EE6to_intEv", metadata !154, i32 1664, metadata !1222, i1 false, i1 false, i32 0, i32 0, null, i32 256, i1 false, null, null, i32 0, metadata !166, i32 1664} ; [ DW_TAG_subprogram ]
!1222 = metadata !{i32 786453, i32 0, metadata !"", i32 0, i32 0, i64 0, i64 0, i64 0, i32 0, null, metadata !1223, i32 0, i32 0} ; [ DW_TAG_subroutine_type ]
!1223 = metadata !{metadata !175, metadata !1205}
!1224 = metadata !{i32 786478, i32 0, metadata !1082, metadata !"to_uint", metadata !"to_uint", metadata !"_ZNK11ap_int_baseILi8ELb1ELb1EE7to_uintEv", metadata !154, i32 1665, metadata !1225, i1 false, i1 false, i32 0, i32 0, null, i32 256, i1 false, null, null, i32 0, metadata !166, i32 1665} ; [ DW_TAG_subprogram ]
!1225 = metadata !{i32 786453, i32 0, metadata !"", i32 0, i32 0, i64 0, i64 0, i64 0, i32 0, null, metadata !1226, i32 0, i32 0} ; [ DW_TAG_subroutine_type ]
!1226 = metadata !{metadata !221, metadata !1205}
!1227 = metadata !{i32 786478, i32 0, metadata !1082, metadata !"to_long", metadata !"to_long", metadata !"_ZNK11ap_int_baseILi8ELb1ELb1EE7to_longEv", metadata !154, i32 1666, metadata !1228, i1 false, i1 false, i32 0, i32 0, null, i32 256, i1 false, null, null, i32 0, metadata !166, i32 1666} ; [ DW_TAG_subprogram ]
!1228 = metadata !{i32 786453, i32 0, metadata !"", i32 0, i32 0, i64 0, i64 0, i64 0, i32 0, null, metadata !1229, i32 0, i32 0} ; [ DW_TAG_subroutine_type ]
!1229 = metadata !{metadata !225, metadata !1205}
!1230 = metadata !{i32 786478, i32 0, metadata !1082, metadata !"to_ulong", metadata !"to_ulong", metadata !"_ZNK11ap_int_baseILi8ELb1ELb1EE8to_ulongEv", metadata !154, i32 1667, metadata !1231, i1 false, i1 false, i32 0, i32 0, null, i32 256, i1 false, null, null, i32 0, metadata !166, i32 1667} ; [ DW_TAG_subprogram ]
!1231 = metadata !{i32 786453, i32 0, metadata !"", i32 0, i32 0, i64 0, i64 0, i64 0, i32 0, null, metadata !1232, i32 0, i32 0} ; [ DW_TAG_subroutine_type ]
!1232 = metadata !{metadata !229, metadata !1205}
!1233 = metadata !{i32 786478, i32 0, metadata !1082, metadata !"to_int64", metadata !"to_int64", metadata !"_ZNK11ap_int_baseILi8ELb1ELb1EE8to_int64Ev", metadata !154, i32 1668, metadata !1234, i1 false, i1 false, i32 0, i32 0, null, i32 256, i1 false, null, null, i32 0, metadata !166, i32 1668} ; [ DW_TAG_subprogram ]
!1234 = metadata !{i32 786453, i32 0, metadata !"", i32 0, i32 0, i64 0, i64 0, i64 0, i32 0, null, metadata !1235, i32 0, i32 0} ; [ DW_TAG_subroutine_type ]
!1235 = metadata !{metadata !233, metadata !1205}
!1236 = metadata !{i32 786478, i32 0, metadata !1082, metadata !"to_uint64", metadata !"to_uint64", metadata !"_ZNK11ap_int_baseILi8ELb1ELb1EE9to_uint64Ev", metadata !154, i32 1669, metadata !1237, i1 false, i1 false, i32 0, i32 0, null, i32 256, i1 false, null, null, i32 0, metadata !166, i32 1669} ; [ DW_TAG_subprogram ]
!1237 = metadata !{i32 786453, i32 0, metadata !"", i32 0, i32 0, i64 0, i64 0, i64 0, i32 0, null, metadata !1238, i32 0, i32 0} ; [ DW_TAG_subroutine_type ]
!1238 = metadata !{metadata !238, metadata !1205}
!1239 = metadata !{i32 786478, i32 0, metadata !1082, metadata !"to_double", metadata !"to_double", metadata !"_ZNK11ap_int_baseILi8ELb1ELb1EE9to_doubleEv", metadata !154, i32 1670, metadata !1240, i1 false, i1 false, i32 0, i32 0, null, i32 256, i1 false, null, null, i32 0, metadata !166, i32 1670} ; [ DW_TAG_subprogram ]
!1240 = metadata !{i32 786453, i32 0, metadata !"", i32 0, i32 0, i64 0, i64 0, i64 0, i32 0, null, metadata !1241, i32 0, i32 0} ; [ DW_TAG_subroutine_type ]
!1241 = metadata !{metadata !247, metadata !1205}
!1242 = metadata !{i32 786478, i32 0, metadata !1082, metadata !"length", metadata !"length", metadata !"_ZNK11ap_int_baseILi8ELb1ELb1EE6lengthEv", metadata !154, i32 1684, metadata !1222, i1 false, i1 false, i32 0, i32 0, null, i32 256, i1 false, null, null, i32 0, metadata !166, i32 1684} ; [ DW_TAG_subprogram ]
!1243 = metadata !{i32 786478, i32 0, metadata !1082, metadata !"length", metadata !"length", metadata !"_ZNVK11ap_int_baseILi8ELb1ELb1EE6lengthEv", metadata !154, i32 1685, metadata !1244, i1 false, i1 false, i32 0, i32 0, null, i32 256, i1 false, null, null, i32 0, metadata !166, i32 1685} ; [ DW_TAG_subprogram ]
!1244 = metadata !{i32 786453, i32 0, metadata !"", i32 0, i32 0, i64 0, i64 0, i64 0, i32 0, null, metadata !1245, i32 0, i32 0} ; [ DW_TAG_subroutine_type ]
!1245 = metadata !{metadata !175, metadata !1246}
!1246 = metadata !{i32 786447, i32 0, metadata !"", i32 0, i32 0, i64 64, i64 64, i64 0, i32 64, metadata !1159} ; [ DW_TAG_pointer_type ]
!1247 = metadata !{i32 786478, i32 0, metadata !1082, metadata !"reverse", metadata !"reverse", metadata !"_ZN11ap_int_baseILi8ELb1ELb1EE7reverseEv", metadata !154, i32 1690, metadata !1248, i1 false, i1 false, i32 0, i32 0, null, i32 256, i1 false, null, null, i32 0, metadata !166, i32 1690} ; [ DW_TAG_subprogram ]
!1248 = metadata !{i32 786453, i32 0, metadata !"", i32 0, i32 0, i64 0, i64 0, i64 0, i32 0, null, metadata !1249, i32 0, i32 0} ; [ DW_TAG_subroutine_type ]
!1249 = metadata !{metadata !1164, metadata !1099}
!1250 = metadata !{i32 786478, i32 0, metadata !1082, metadata !"iszero", metadata !"iszero", metadata !"_ZNK11ap_int_baseILi8ELb1ELb1EE6iszeroEv", metadata !154, i32 1696, metadata !1207, i1 false, i1 false, i32 0, i32 0, null, i32 256, i1 false, null, null, i32 0, metadata !166, i32 1696} ; [ DW_TAG_subprogram ]
!1251 = metadata !{i32 786478, i32 0, metadata !1082, metadata !"is_zero", metadata !"is_zero", metadata !"_ZNK11ap_int_baseILi8ELb1ELb1EE7is_zeroEv", metadata !154, i32 1701, metadata !1207, i1 false, i1 false, i32 0, i32 0, null, i32 256, i1 false, null, null, i32 0, metadata !166, i32 1701} ; [ DW_TAG_subprogram ]
!1252 = metadata !{i32 786478, i32 0, metadata !1082, metadata !"sign", metadata !"sign", metadata !"_ZNK11ap_int_baseILi8ELb1ELb1EE4signEv", metadata !154, i32 1706, metadata !1207, i1 false, i1 false, i32 0, i32 0, null, i32 256, i1 false, null, null, i32 0, metadata !166, i32 1706} ; [ DW_TAG_subprogram ]
!1253 = metadata !{i32 786478, i32 0, metadata !1082, metadata !"clear", metadata !"clear", metadata !"_ZN11ap_int_baseILi8ELb1ELb1EE5clearEi", metadata !154, i32 1714, metadata !1116, i1 false, i1 false, i32 0, i32 0, null, i32 256, i1 false, null, null, i32 0, metadata !166, i32 1714} ; [ DW_TAG_subprogram ]
!1254 = metadata !{i32 786478, i32 0, metadata !1082, metadata !"invert", metadata !"invert", metadata !"_ZN11ap_int_baseILi8ELb1ELb1EE6invertEi", metadata !154, i32 1720, metadata !1116, i1 false, i1 false, i32 0, i32 0, null, i32 256, i1 false, null, null, i32 0, metadata !166, i32 1720} ; [ DW_TAG_subprogram ]
!1255 = metadata !{i32 786478, i32 0, metadata !1082, metadata !"test", metadata !"test", metadata !"_ZNK11ap_int_baseILi8ELb1ELb1EE4testEi", metadata !154, i32 1728, metadata !1256, i1 false, i1 false, i32 0, i32 0, null, i32 256, i1 false, null, null, i32 0, metadata !166, i32 1728} ; [ DW_TAG_subprogram ]
!1256 = metadata !{i32 786453, i32 0, metadata !"", i32 0, i32 0, i64 0, i64 0, i64 0, i32 0, null, metadata !1257, i32 0, i32 0} ; [ DW_TAG_subroutine_type ]
!1257 = metadata !{metadata !177, metadata !1205, metadata !175}
!1258 = metadata !{i32 786478, i32 0, metadata !1082, metadata !"set", metadata !"set", metadata !"_ZN11ap_int_baseILi8ELb1ELb1EE3setEi", metadata !154, i32 1734, metadata !1116, i1 false, i1 false, i32 0, i32 0, null, i32 256, i1 false, null, null, i32 0, metadata !166, i32 1734} ; [ DW_TAG_subprogram ]
!1259 = metadata !{i32 786478, i32 0, metadata !1082, metadata !"set", metadata !"set", metadata !"_ZN11ap_int_baseILi8ELb1ELb1EE3setEib", metadata !154, i32 1740, metadata !1260, i1 false, i1 false, i32 0, i32 0, null, i32 256, i1 false, null, null, i32 0, metadata !166, i32 1740} ; [ DW_TAG_subprogram ]
!1260 = metadata !{i32 786453, i32 0, metadata !"", i32 0, i32 0, i64 0, i64 0, i64 0, i32 0, null, metadata !1261, i32 0, i32 0} ; [ DW_TAG_subroutine_type ]
!1261 = metadata !{null, metadata !1099, metadata !175, metadata !177}
!1262 = metadata !{i32 786478, i32 0, metadata !1082, metadata !"lrotate", metadata !"lrotate", metadata !"_ZN11ap_int_baseILi8ELb1ELb1EE7lrotateEi", metadata !154, i32 1747, metadata !1116, i1 false, i1 false, i32 0, i32 0, null, i32 256, i1 false, null, null, i32 0, metadata !166, i32 1747} ; [ DW_TAG_subprogram ]
!1263 = metadata !{i32 786478, i32 0, metadata !1082, metadata !"rrotate", metadata !"rrotate", metadata !"_ZN11ap_int_baseILi8ELb1ELb1EE7rrotateEi", metadata !154, i32 1756, metadata !1116, i1 false, i1 false, i32 0, i32 0, null, i32 256, i1 false, null, null, i32 0, metadata !166, i32 1756} ; [ DW_TAG_subprogram ]
!1264 = metadata !{i32 786478, i32 0, metadata !1082, metadata !"set_bit", metadata !"set_bit", metadata !"_ZN11ap_int_baseILi8ELb1ELb1EE7set_bitEib", metadata !154, i32 1764, metadata !1260, i1 false, i1 false, i32 0, i32 0, null, i32 256, i1 false, null, null, i32 0, metadata !166, i32 1764} ; [ DW_TAG_subprogram ]
!1265 = metadata !{i32 786478, i32 0, metadata !1082, metadata !"get_bit", metadata !"get_bit", metadata !"_ZNK11ap_int_baseILi8ELb1ELb1EE7get_bitEi", metadata !154, i32 1769, metadata !1256, i1 false, i1 false, i32 0, i32 0, null, i32 256, i1 false, null, null, i32 0, metadata !166, i32 1769} ; [ DW_TAG_subprogram ]
!1266 = metadata !{i32 786478, i32 0, metadata !1082, metadata !"b_not", metadata !"b_not", metadata !"_ZN11ap_int_baseILi8ELb1ELb1EE5b_notEv", metadata !154, i32 1774, metadata !1097, i1 false, i1 false, i32 0, i32 0, null, i32 256, i1 false, null, null, i32 0, metadata !166, i32 1774} ; [ DW_TAG_subprogram ]
!1267 = metadata !{i32 786478, i32 0, metadata !1082, metadata !"countLeadingZeros", metadata !"countLeadingZeros", metadata !"_ZN11ap_int_baseILi8ELb1ELb1EE17countLeadingZerosEv", metadata !154, i32 1781, metadata !1268, i1 false, i1 false, i32 0, i32 0, null, i32 256, i1 false, null, null, i32 0, metadata !166, i32 1781} ; [ DW_TAG_subprogram ]
!1268 = metadata !{i32 786453, i32 0, metadata !"", i32 0, i32 0, i64 0, i64 0, i64 0, i32 0, null, metadata !1269, i32 0, i32 0} ; [ DW_TAG_subroutine_type ]
!1269 = metadata !{metadata !175, metadata !1099}
!1270 = metadata !{i32 786478, i32 0, metadata !1082, metadata !"operator++", metadata !"operator++", metadata !"_ZN11ap_int_baseILi8ELb1ELb1EEppEv", metadata !154, i32 1838, metadata !1248, i1 false, i1 false, i32 0, i32 0, null, i32 256, i1 false, null, null, i32 0, metadata !166, i32 1838} ; [ DW_TAG_subprogram ]
!1271 = metadata !{i32 786478, i32 0, metadata !1082, metadata !"operator--", metadata !"operator--", metadata !"_ZN11ap_int_baseILi8ELb1ELb1EEmmEv", metadata !154, i32 1842, metadata !1248, i1 false, i1 false, i32 0, i32 0, null, i32 256, i1 false, null, null, i32 0, metadata !166, i32 1842} ; [ DW_TAG_subprogram ]
!1272 = metadata !{i32 786478, i32 0, metadata !1082, metadata !"operator++", metadata !"operator++", metadata !"_ZN11ap_int_baseILi8ELb1ELb1EEppEi", metadata !154, i32 1850, metadata !1273, i1 false, i1 false, i32 0, i32 0, null, i32 256, i1 false, null, null, i32 0, metadata !166, i32 1850} ; [ DW_TAG_subprogram ]
!1273 = metadata !{i32 786453, i32 0, metadata !"", i32 0, i32 0, i64 0, i64 0, i64 0, i32 0, null, metadata !1274, i32 0, i32 0} ; [ DW_TAG_subroutine_type ]
!1274 = metadata !{metadata !1154, metadata !1099, metadata !175}
!1275 = metadata !{i32 786478, i32 0, metadata !1082, metadata !"operator--", metadata !"operator--", metadata !"_ZN11ap_int_baseILi8ELb1ELb1EEmmEi", metadata !154, i32 1855, metadata !1273, i1 false, i1 false, i32 0, i32 0, null, i32 256, i1 false, null, null, i32 0, metadata !166, i32 1855} ; [ DW_TAG_subprogram ]
!1276 = metadata !{i32 786478, i32 0, metadata !1082, metadata !"operator+", metadata !"operator+", metadata !"_ZNK11ap_int_baseILi8ELb1ELb1EEpsEv", metadata !154, i32 1864, metadata !1277, i1 false, i1 false, i32 0, i32 0, null, i32 256, i1 false, null, null, i32 0, metadata !166, i32 1864} ; [ DW_TAG_subprogram ]
!1277 = metadata !{i32 786453, i32 0, metadata !"", i32 0, i32 0, i64 0, i64 0, i64 0, i32 0, null, metadata !1278, i32 0, i32 0} ; [ DW_TAG_subroutine_type ]
!1278 = metadata !{metadata !1082, metadata !1205}
!1279 = metadata !{i32 786478, i32 0, metadata !1082, metadata !"operator!", metadata !"operator!", metadata !"_ZNK11ap_int_baseILi8ELb1ELb1EEntEv", metadata !154, i32 1870, metadata !1207, i1 false, i1 false, i32 0, i32 0, null, i32 256, i1 false, null, null, i32 0, metadata !166, i32 1870} ; [ DW_TAG_subprogram ]
!1280 = metadata !{i32 786478, i32 0, metadata !1082, metadata !"operator-", metadata !"operator-", metadata !"_ZNK11ap_int_baseILi8ELb1ELb1EEngEv", metadata !154, i32 1875, metadata !1281, i1 false, i1 false, i32 0, i32 0, null, i32 256, i1 false, null, null, i32 0, metadata !166, i32 1875} ; [ DW_TAG_subprogram ]
!1281 = metadata !{i32 786453, i32 0, metadata !"", i32 0, i32 0, i64 0, i64 0, i64 0, i32 0, null, metadata !1282, i32 0, i32 0} ; [ DW_TAG_subroutine_type ]
!1282 = metadata !{metadata !1283, metadata !1205}
!1283 = metadata !{i32 786434, null, metadata !"ap_int_base<9, true, true>", metadata !154, i32 1397, i64 16, i64 16, i32 0, i32 0, null, metadata !1284, i32 0, null, metadata !1558} ; [ DW_TAG_class_type ]
!1284 = metadata !{metadata !1285, metadata !1296, metadata !1300, metadata !1303, metadata !1306, metadata !1309, metadata !1312, metadata !1315, metadata !1318, metadata !1321, metadata !1324, metadata !1327, metadata !1330, metadata !1333, metadata !1336, metadata !1339, metadata !1342, metadata !1345, metadata !1350, metadata !1355, metadata !1360, metadata !1361, metadata !1365, metadata !1368, metadata !1371, metadata !1374, metadata !1377, metadata !1380, metadata !1383, metadata !1386, metadata !1389, metadata !1392, metadata !1395, metadata !1398, metadata !1406, metadata !1409, metadata !1412, metadata !1415, metadata !1418, metadata !1421, metadata !1424, metadata !1427, metadata !1430, metadata !1433, metadata !1436, metadata !1439, metadata !1442, metadata !1443, metadata !1447, metadata !1450, metadata !1451, metadata !1452, metadata !1453, metadata !1454, metadata !1455, metadata !1458, metadata !1459, metadata !1462, metadata !1463, metadata !1464, metadata !1465, metadata !1466, metadata !1467, metadata !1470, metadata !1471, metadata !1472, metadata !1475, metadata !1476, metadata !1479, metadata !1480, metadata !1484, metadata !1488, metadata !1489, metadata !1492, metadata !1493, metadata !1532, metadata !1533, metadata !1534, metadata !1535, metadata !1538, metadata !1539, metadata !1540, metadata !1541, metadata !1542, metadata !1543, metadata !1544, metadata !1545, metadata !1546, metadata !1547, metadata !1548, metadata !1549, metadata !1552, metadata !1555}
!1285 = metadata !{i32 786460, metadata !1283, null, metadata !154, i32 0, i64 0, i64 0, i64 0, i32 0, metadata !1286} ; [ DW_TAG_inheritance ]
!1286 = metadata !{i32 786434, null, metadata !"ssdm_int<9 + 1024 * 0, true>", metadata !158, i32 11, i64 16, i64 16, i32 0, i32 0, null, metadata !1287, i32 0, null, metadata !1294} ; [ DW_TAG_class_type ]
!1287 = metadata !{metadata !1288, metadata !1290}
!1288 = metadata !{i32 786445, metadata !1286, metadata !"V", metadata !158, i32 11, i64 9, i64 16, i64 0, i32 0, metadata !1289} ; [ DW_TAG_member ]
!1289 = metadata !{i32 786468, null, metadata !"int9", null, i32 0, i64 9, i64 16, i64 0, i32 0, i32 5} ; [ DW_TAG_base_type ]
!1290 = metadata !{i32 786478, i32 0, metadata !1286, metadata !"ssdm_int", metadata !"ssdm_int", metadata !"", metadata !158, i32 11, metadata !1291, i1 false, i1 false, i32 0, i32 0, null, i32 256, i1 false, null, null, i32 0, metadata !166, i32 11} ; [ DW_TAG_subprogram ]
!1291 = metadata !{i32 786453, i32 0, metadata !"", i32 0, i32 0, i64 0, i64 0, i64 0, i32 0, null, metadata !1292, i32 0, i32 0} ; [ DW_TAG_subroutine_type ]
!1292 = metadata !{null, metadata !1293}
!1293 = metadata !{i32 786447, i32 0, metadata !"", i32 0, i32 0, i64 64, i64 64, i64 0, i32 64, metadata !1286} ; [ DW_TAG_pointer_type ]
!1294 = metadata !{metadata !1295, metadata !1095}
!1295 = metadata !{i32 786480, null, metadata !"_AP_N", metadata !175, i64 9, null, i32 0, i32 0} ; [ DW_TAG_template_value_parameter ]
!1296 = metadata !{i32 786478, i32 0, metadata !1283, metadata !"ap_int_base", metadata !"ap_int_base", metadata !"", metadata !154, i32 1438, metadata !1297, i1 false, i1 false, i32 0, i32 0, null, i32 256, i1 false, null, null, i32 0, metadata !166, i32 1438} ; [ DW_TAG_subprogram ]
!1297 = metadata !{i32 786453, i32 0, metadata !"", i32 0, i32 0, i64 0, i64 0, i64 0, i32 0, null, metadata !1298, i32 0, i32 0} ; [ DW_TAG_subroutine_type ]
!1298 = metadata !{null, metadata !1299}
!1299 = metadata !{i32 786447, i32 0, metadata !"", i32 0, i32 0, i64 64, i64 64, i64 0, i32 64, metadata !1283} ; [ DW_TAG_pointer_type ]
!1300 = metadata !{i32 786478, i32 0, metadata !1283, metadata !"ap_int_base", metadata !"ap_int_base", metadata !"", metadata !154, i32 1460, metadata !1301, i1 false, i1 false, i32 0, i32 0, null, i32 384, i1 false, null, null, i32 0, metadata !166, i32 1460} ; [ DW_TAG_subprogram ]
!1301 = metadata !{i32 786453, i32 0, metadata !"", i32 0, i32 0, i64 0, i64 0, i64 0, i32 0, null, metadata !1302, i32 0, i32 0} ; [ DW_TAG_subroutine_type ]
!1302 = metadata !{null, metadata !1299, metadata !177}
!1303 = metadata !{i32 786478, i32 0, metadata !1283, metadata !"ap_int_base", metadata !"ap_int_base", metadata !"", metadata !154, i32 1461, metadata !1304, i1 false, i1 false, i32 0, i32 0, null, i32 384, i1 false, null, null, i32 0, metadata !166, i32 1461} ; [ DW_TAG_subprogram ]
!1304 = metadata !{i32 786453, i32 0, metadata !"", i32 0, i32 0, i64 0, i64 0, i64 0, i32 0, null, metadata !1305, i32 0, i32 0} ; [ DW_TAG_subroutine_type ]
!1305 = metadata !{null, metadata !1299, metadata !202}
!1306 = metadata !{i32 786478, i32 0, metadata !1283, metadata !"ap_int_base", metadata !"ap_int_base", metadata !"", metadata !154, i32 1462, metadata !1307, i1 false, i1 false, i32 0, i32 0, null, i32 384, i1 false, null, null, i32 0, metadata !166, i32 1462} ; [ DW_TAG_subprogram ]
!1307 = metadata !{i32 786453, i32 0, metadata !"", i32 0, i32 0, i64 0, i64 0, i64 0, i32 0, null, metadata !1308, i32 0, i32 0} ; [ DW_TAG_subroutine_type ]
!1308 = metadata !{null, metadata !1299, metadata !206}
!1309 = metadata !{i32 786478, i32 0, metadata !1283, metadata !"ap_int_base", metadata !"ap_int_base", metadata !"", metadata !154, i32 1463, metadata !1310, i1 false, i1 false, i32 0, i32 0, null, i32 384, i1 false, null, null, i32 0, metadata !166, i32 1463} ; [ DW_TAG_subprogram ]
!1310 = metadata !{i32 786453, i32 0, metadata !"", i32 0, i32 0, i64 0, i64 0, i64 0, i32 0, null, metadata !1311, i32 0, i32 0} ; [ DW_TAG_subroutine_type ]
!1311 = metadata !{null, metadata !1299, metadata !210}
!1312 = metadata !{i32 786478, i32 0, metadata !1283, metadata !"ap_int_base", metadata !"ap_int_base", metadata !"", metadata !154, i32 1464, metadata !1313, i1 false, i1 false, i32 0, i32 0, null, i32 384, i1 false, null, null, i32 0, metadata !166, i32 1464} ; [ DW_TAG_subprogram ]
!1313 = metadata !{i32 786453, i32 0, metadata !"", i32 0, i32 0, i64 0, i64 0, i64 0, i32 0, null, metadata !1314, i32 0, i32 0} ; [ DW_TAG_subroutine_type ]
!1314 = metadata !{null, metadata !1299, metadata !214}
!1315 = metadata !{i32 786478, i32 0, metadata !1283, metadata !"ap_int_base", metadata !"ap_int_base", metadata !"", metadata !154, i32 1465, metadata !1316, i1 false, i1 false, i32 0, i32 0, null, i32 384, i1 false, null, null, i32 0, metadata !166, i32 1465} ; [ DW_TAG_subprogram ]
!1316 = metadata !{i32 786453, i32 0, metadata !"", i32 0, i32 0, i64 0, i64 0, i64 0, i32 0, null, metadata !1317, i32 0, i32 0} ; [ DW_TAG_subroutine_type ]
!1317 = metadata !{null, metadata !1299, metadata !175}
!1318 = metadata !{i32 786478, i32 0, metadata !1283, metadata !"ap_int_base", metadata !"ap_int_base", metadata !"", metadata !154, i32 1466, metadata !1319, i1 false, i1 false, i32 0, i32 0, null, i32 384, i1 false, null, null, i32 0, metadata !166, i32 1466} ; [ DW_TAG_subprogram ]
!1319 = metadata !{i32 786453, i32 0, metadata !"", i32 0, i32 0, i64 0, i64 0, i64 0, i32 0, null, metadata !1320, i32 0, i32 0} ; [ DW_TAG_subroutine_type ]
!1320 = metadata !{null, metadata !1299, metadata !221}
!1321 = metadata !{i32 786478, i32 0, metadata !1283, metadata !"ap_int_base", metadata !"ap_int_base", metadata !"", metadata !154, i32 1467, metadata !1322, i1 false, i1 false, i32 0, i32 0, null, i32 384, i1 false, null, null, i32 0, metadata !166, i32 1467} ; [ DW_TAG_subprogram ]
!1322 = metadata !{i32 786453, i32 0, metadata !"", i32 0, i32 0, i64 0, i64 0, i64 0, i32 0, null, metadata !1323, i32 0, i32 0} ; [ DW_TAG_subroutine_type ]
!1323 = metadata !{null, metadata !1299, metadata !225}
!1324 = metadata !{i32 786478, i32 0, metadata !1283, metadata !"ap_int_base", metadata !"ap_int_base", metadata !"", metadata !154, i32 1468, metadata !1325, i1 false, i1 false, i32 0, i32 0, null, i32 384, i1 false, null, null, i32 0, metadata !166, i32 1468} ; [ DW_TAG_subprogram ]
!1325 = metadata !{i32 786453, i32 0, metadata !"", i32 0, i32 0, i64 0, i64 0, i64 0, i32 0, null, metadata !1326, i32 0, i32 0} ; [ DW_TAG_subroutine_type ]
!1326 = metadata !{null, metadata !1299, metadata !229}
!1327 = metadata !{i32 786478, i32 0, metadata !1283, metadata !"ap_int_base", metadata !"ap_int_base", metadata !"", metadata !154, i32 1469, metadata !1328, i1 false, i1 false, i32 0, i32 0, null, i32 384, i1 false, null, null, i32 0, metadata !166, i32 1469} ; [ DW_TAG_subprogram ]
!1328 = metadata !{i32 786453, i32 0, metadata !"", i32 0, i32 0, i64 0, i64 0, i64 0, i32 0, null, metadata !1329, i32 0, i32 0} ; [ DW_TAG_subroutine_type ]
!1329 = metadata !{null, metadata !1299, metadata !233}
!1330 = metadata !{i32 786478, i32 0, metadata !1283, metadata !"ap_int_base", metadata !"ap_int_base", metadata !"", metadata !154, i32 1470, metadata !1331, i1 false, i1 false, i32 0, i32 0, null, i32 384, i1 false, null, null, i32 0, metadata !166, i32 1470} ; [ DW_TAG_subprogram ]
!1331 = metadata !{i32 786453, i32 0, metadata !"", i32 0, i32 0, i64 0, i64 0, i64 0, i32 0, null, metadata !1332, i32 0, i32 0} ; [ DW_TAG_subroutine_type ]
!1332 = metadata !{null, metadata !1299, metadata !238}
!1333 = metadata !{i32 786478, i32 0, metadata !1283, metadata !"ap_int_base", metadata !"ap_int_base", metadata !"", metadata !154, i32 1471, metadata !1334, i1 false, i1 false, i32 0, i32 0, null, i32 384, i1 false, null, null, i32 0, metadata !166, i32 1471} ; [ DW_TAG_subprogram ]
!1334 = metadata !{i32 786453, i32 0, metadata !"", i32 0, i32 0, i64 0, i64 0, i64 0, i32 0, null, metadata !1335, i32 0, i32 0} ; [ DW_TAG_subroutine_type ]
!1335 = metadata !{null, metadata !1299, metadata !243}
!1336 = metadata !{i32 786478, i32 0, metadata !1283, metadata !"ap_int_base", metadata !"ap_int_base", metadata !"", metadata !154, i32 1472, metadata !1337, i1 false, i1 false, i32 0, i32 0, null, i32 384, i1 false, null, null, i32 0, metadata !166, i32 1472} ; [ DW_TAG_subprogram ]
!1337 = metadata !{i32 786453, i32 0, metadata !"", i32 0, i32 0, i64 0, i64 0, i64 0, i32 0, null, metadata !1338, i32 0, i32 0} ; [ DW_TAG_subroutine_type ]
!1338 = metadata !{null, metadata !1299, metadata !247}
!1339 = metadata !{i32 786478, i32 0, metadata !1283, metadata !"ap_int_base", metadata !"ap_int_base", metadata !"", metadata !154, i32 1499, metadata !1340, i1 false, i1 false, i32 0, i32 0, null, i32 256, i1 false, null, null, i32 0, metadata !166, i32 1499} ; [ DW_TAG_subprogram ]
!1340 = metadata !{i32 786453, i32 0, metadata !"", i32 0, i32 0, i64 0, i64 0, i64 0, i32 0, null, metadata !1341, i32 0, i32 0} ; [ DW_TAG_subroutine_type ]
!1341 = metadata !{null, metadata !1299, metadata !251}
!1342 = metadata !{i32 786478, i32 0, metadata !1283, metadata !"ap_int_base", metadata !"ap_int_base", metadata !"", metadata !154, i32 1506, metadata !1343, i1 false, i1 false, i32 0, i32 0, null, i32 256, i1 false, null, null, i32 0, metadata !166, i32 1506} ; [ DW_TAG_subprogram ]
!1343 = metadata !{i32 786453, i32 0, metadata !"", i32 0, i32 0, i64 0, i64 0, i64 0, i32 0, null, metadata !1344, i32 0, i32 0} ; [ DW_TAG_subroutine_type ]
